
ctarget:     file format elf64-x86-64


Disassembly of section .init:

0000000000401000 <_init>:
  401000:	48 83 ec 08          	sub    $0x8,%rsp
  401004:	48 8b 05 ed 5f 00 00 	mov    0x5fed(%rip),%rax        # 406ff8 <__gmon_start__@Base>
  40100b:	48 85 c0             	test   %rax,%rax
  40100e:	74 02                	je     401012 <_init+0x12>
  401010:	ff d0                	call   *%rax
  401012:	48 83 c4 08          	add    $0x8,%rsp
  401016:	c3                   	ret    

Disassembly of section .plt:

0000000000401020 <strcasecmp@plt-0x10>:
  401020:	ff 35 e2 5f 00 00    	push   0x5fe2(%rip)        # 407008 <_GLOBAL_OFFSET_TABLE_+0x8>
  401026:	ff 25 e4 5f 00 00    	jmp    *0x5fe4(%rip)        # 407010 <_GLOBAL_OFFSET_TABLE_+0x10>
  40102c:	0f 1f 40 00          	nopl   0x0(%rax)

0000000000401030 <strcasecmp@plt>:
  401030:	ff 25 e2 5f 00 00    	jmp    *0x5fe2(%rip)        # 407018 <strcasecmp@GLIBC_2.2.5>
  401036:	68 00 00 00 00       	push   $0x0
  40103b:	e9 e0 ff ff ff       	jmp    401020 <_init+0x20>

0000000000401040 <__errno_location@plt>:
  401040:	ff 25 da 5f 00 00    	jmp    *0x5fda(%rip)        # 407020 <__errno_location@GLIBC_2.2.5>
  401046:	68 01 00 00 00       	push   $0x1
  40104b:	e9 d0 ff ff ff       	jmp    401020 <_init+0x20>

0000000000401050 <srandom@plt>:
  401050:	ff 25 d2 5f 00 00    	jmp    *0x5fd2(%rip)        # 407028 <srandom@GLIBC_2.2.5>
  401056:	68 02 00 00 00       	push   $0x2
  40105b:	e9 c0 ff ff ff       	jmp    401020 <_init+0x20>

0000000000401060 <strncmp@plt>:
  401060:	ff 25 ca 5f 00 00    	jmp    *0x5fca(%rip)        # 407030 <strncmp@GLIBC_2.2.5>
  401066:	68 03 00 00 00       	push   $0x3
  40106b:	e9 b0 ff ff ff       	jmp    401020 <_init+0x20>

0000000000401070 <strcpy@plt>:
  401070:	ff 25 c2 5f 00 00    	jmp    *0x5fc2(%rip)        # 407038 <strcpy@GLIBC_2.2.5>
  401076:	68 04 00 00 00       	push   $0x4
  40107b:	e9 a0 ff ff ff       	jmp    401020 <_init+0x20>

0000000000401080 <puts@plt>:
  401080:	ff 25 ba 5f 00 00    	jmp    *0x5fba(%rip)        # 407040 <puts@GLIBC_2.2.5>
  401086:	68 05 00 00 00       	push   $0x5
  40108b:	e9 90 ff ff ff       	jmp    401020 <_init+0x20>

0000000000401090 <write@plt>:
  401090:	ff 25 b2 5f 00 00    	jmp    *0x5fb2(%rip)        # 407048 <write@GLIBC_2.2.5>
  401096:	68 06 00 00 00       	push   $0x6
  40109b:	e9 80 ff ff ff       	jmp    401020 <_init+0x20>

00000000004010a0 <strlen@plt>:
  4010a0:	ff 25 aa 5f 00 00    	jmp    *0x5faa(%rip)        # 407050 <strlen@GLIBC_2.2.5>
  4010a6:	68 07 00 00 00       	push   $0x7
  4010ab:	e9 70 ff ff ff       	jmp    401020 <_init+0x20>

00000000004010b0 <__stack_chk_fail@plt>:
  4010b0:	ff 25 a2 5f 00 00    	jmp    *0x5fa2(%rip)        # 407058 <__stack_chk_fail@GLIBC_2.4>
  4010b6:	68 08 00 00 00       	push   $0x8
  4010bb:	e9 60 ff ff ff       	jmp    401020 <_init+0x20>

00000000004010c0 <mmap@plt>:
  4010c0:	ff 25 9a 5f 00 00    	jmp    *0x5f9a(%rip)        # 407060 <mmap@GLIBC_2.2.5>
  4010c6:	68 09 00 00 00       	push   $0x9
  4010cb:	e9 50 ff ff ff       	jmp    401020 <_init+0x20>

00000000004010d0 <memset@plt>:
  4010d0:	ff 25 92 5f 00 00    	jmp    *0x5f92(%rip)        # 407068 <memset@GLIBC_2.2.5>
  4010d6:	68 0a 00 00 00       	push   $0xa
  4010db:	e9 40 ff ff ff       	jmp    401020 <_init+0x20>

00000000004010e0 <alarm@plt>:
  4010e0:	ff 25 8a 5f 00 00    	jmp    *0x5f8a(%rip)        # 407070 <alarm@GLIBC_2.2.5>
  4010e6:	68 0b 00 00 00       	push   $0xb
  4010eb:	e9 30 ff ff ff       	jmp    401020 <_init+0x20>

00000000004010f0 <close@plt>:
  4010f0:	ff 25 82 5f 00 00    	jmp    *0x5f82(%rip)        # 407078 <close@GLIBC_2.2.5>
  4010f6:	68 0c 00 00 00       	push   $0xc
  4010fb:	e9 20 ff ff ff       	jmp    401020 <_init+0x20>

0000000000401100 <read@plt>:
  401100:	ff 25 7a 5f 00 00    	jmp    *0x5f7a(%rip)        # 407080 <read@GLIBC_2.2.5>
  401106:	68 0d 00 00 00       	push   $0xd
  40110b:	e9 10 ff ff ff       	jmp    401020 <_init+0x20>

0000000000401110 <strcmp@plt>:
  401110:	ff 25 72 5f 00 00    	jmp    *0x5f72(%rip)        # 407088 <strcmp@GLIBC_2.2.5>
  401116:	68 0e 00 00 00       	push   $0xe
  40111b:	e9 00 ff ff ff       	jmp    401020 <_init+0x20>

0000000000401120 <signal@plt>:
  401120:	ff 25 6a 5f 00 00    	jmp    *0x5f6a(%rip)        # 407090 <signal@GLIBC_2.2.5>
  401126:	68 0f 00 00 00       	push   $0xf
  40112b:	e9 f0 fe ff ff       	jmp    401020 <_init+0x20>

0000000000401130 <gethostbyname@plt>:
  401130:	ff 25 62 5f 00 00    	jmp    *0x5f62(%rip)        # 407098 <gethostbyname@GLIBC_2.2.5>
  401136:	68 10 00 00 00       	push   $0x10
  40113b:	e9 e0 fe ff ff       	jmp    401020 <_init+0x20>

0000000000401140 <__memmove_chk@plt>:
  401140:	ff 25 5a 5f 00 00    	jmp    *0x5f5a(%rip)        # 4070a0 <__memmove_chk@GLIBC_2.3.4>
  401146:	68 11 00 00 00       	push   $0x11
  40114b:	e9 d0 fe ff ff       	jmp    401020 <_init+0x20>

0000000000401150 <strtol@plt>:
  401150:	ff 25 52 5f 00 00    	jmp    *0x5f52(%rip)        # 4070a8 <strtol@GLIBC_2.2.5>
  401156:	68 12 00 00 00       	push   $0x12
  40115b:	e9 c0 fe ff ff       	jmp    401020 <_init+0x20>

0000000000401160 <memcpy@plt>:
  401160:	ff 25 4a 5f 00 00    	jmp    *0x5f4a(%rip)        # 4070b0 <memcpy@GLIBC_2.14>
  401166:	68 13 00 00 00       	push   $0x13
  40116b:	e9 b0 fe ff ff       	jmp    401020 <_init+0x20>

0000000000401170 <time@plt>:
  401170:	ff 25 42 5f 00 00    	jmp    *0x5f42(%rip)        # 4070b8 <time@GLIBC_2.2.5>
  401176:	68 14 00 00 00       	push   $0x14
  40117b:	e9 a0 fe ff ff       	jmp    401020 <_init+0x20>

0000000000401180 <random@plt>:
  401180:	ff 25 3a 5f 00 00    	jmp    *0x5f3a(%rip)        # 4070c0 <random@GLIBC_2.2.5>
  401186:	68 15 00 00 00       	push   $0x15
  40118b:	e9 90 fe ff ff       	jmp    401020 <_init+0x20>

0000000000401190 <__isoc99_sscanf@plt>:
  401190:	ff 25 32 5f 00 00    	jmp    *0x5f32(%rip)        # 4070c8 <__isoc99_sscanf@GLIBC_2.7>
  401196:	68 16 00 00 00       	push   $0x16
  40119b:	e9 80 fe ff ff       	jmp    401020 <_init+0x20>

00000000004011a0 <munmap@plt>:
  4011a0:	ff 25 2a 5f 00 00    	jmp    *0x5f2a(%rip)        # 4070d0 <munmap@GLIBC_2.2.5>
  4011a6:	68 17 00 00 00       	push   $0x17
  4011ab:	e9 70 fe ff ff       	jmp    401020 <_init+0x20>

00000000004011b0 <__printf_chk@plt>:
  4011b0:	ff 25 22 5f 00 00    	jmp    *0x5f22(%rip)        # 4070d8 <__printf_chk@GLIBC_2.3.4>
  4011b6:	68 18 00 00 00       	push   $0x18
  4011bb:	e9 60 fe ff ff       	jmp    401020 <_init+0x20>

00000000004011c0 <fopen@plt>:
  4011c0:	ff 25 1a 5f 00 00    	jmp    *0x5f1a(%rip)        # 4070e0 <fopen@GLIBC_2.2.5>
  4011c6:	68 19 00 00 00       	push   $0x19
  4011cb:	e9 50 fe ff ff       	jmp    401020 <_init+0x20>

00000000004011d0 <getopt@plt>:
  4011d0:	ff 25 12 5f 00 00    	jmp    *0x5f12(%rip)        # 4070e8 <getopt@GLIBC_2.2.5>
  4011d6:	68 1a 00 00 00       	push   $0x1a
  4011db:	e9 40 fe ff ff       	jmp    401020 <_init+0x20>

00000000004011e0 <strtoul@plt>:
  4011e0:	ff 25 0a 5f 00 00    	jmp    *0x5f0a(%rip)        # 4070f0 <strtoul@GLIBC_2.2.5>
  4011e6:	68 1b 00 00 00       	push   $0x1b
  4011eb:	e9 30 fe ff ff       	jmp    401020 <_init+0x20>

00000000004011f0 <gethostname@plt>:
  4011f0:	ff 25 02 5f 00 00    	jmp    *0x5f02(%rip)        # 4070f8 <gethostname@GLIBC_2.2.5>
  4011f6:	68 1c 00 00 00       	push   $0x1c
  4011fb:	e9 20 fe ff ff       	jmp    401020 <_init+0x20>

0000000000401200 <exit@plt>:
  401200:	ff 25 fa 5e 00 00    	jmp    *0x5efa(%rip)        # 407100 <exit@GLIBC_2.2.5>
  401206:	68 1d 00 00 00       	push   $0x1d
  40120b:	e9 10 fe ff ff       	jmp    401020 <_init+0x20>

0000000000401210 <connect@plt>:
  401210:	ff 25 f2 5e 00 00    	jmp    *0x5ef2(%rip)        # 407108 <connect@GLIBC_2.2.5>
  401216:	68 1e 00 00 00       	push   $0x1e
  40121b:	e9 00 fe ff ff       	jmp    401020 <_init+0x20>

0000000000401220 <__fprintf_chk@plt>:
  401220:	ff 25 ea 5e 00 00    	jmp    *0x5eea(%rip)        # 407110 <__fprintf_chk@GLIBC_2.3.4>
  401226:	68 1f 00 00 00       	push   $0x1f
  40122b:	e9 f0 fd ff ff       	jmp    401020 <_init+0x20>

0000000000401230 <getc@plt>:
  401230:	ff 25 e2 5e 00 00    	jmp    *0x5ee2(%rip)        # 407118 <getc@GLIBC_2.2.5>
  401236:	68 20 00 00 00       	push   $0x20
  40123b:	e9 e0 fd ff ff       	jmp    401020 <_init+0x20>

0000000000401240 <__sprintf_chk@plt>:
  401240:	ff 25 da 5e 00 00    	jmp    *0x5eda(%rip)        # 407120 <__sprintf_chk@GLIBC_2.3.4>
  401246:	68 21 00 00 00       	push   $0x21
  40124b:	e9 d0 fd ff ff       	jmp    401020 <_init+0x20>

0000000000401250 <socket@plt>:
  401250:	ff 25 d2 5e 00 00    	jmp    *0x5ed2(%rip)        # 407128 <socket@GLIBC_2.2.5>
  401256:	68 22 00 00 00       	push   $0x22
  40125b:	e9 c0 fd ff ff       	jmp    401020 <_init+0x20>

Disassembly of section .text:

0000000000401260 <_start>:
  401260:	31 ed                	xor    %ebp,%ebp
  401262:	49 89 d1             	mov    %rdx,%r9
  401265:	5e                   	pop    %rsi
  401266:	48 89 e2             	mov    %rsp,%rdx
  401269:	48 83 e4 f0          	and    $0xfffffffffffffff0,%rsp
  40126d:	50                   	push   %rax
  40126e:	54                   	push   %rsp
  40126f:	45 31 c0             	xor    %r8d,%r8d
  401272:	31 c9                	xor    %ecx,%ecx
  401274:	48 c7 c7 51 15 40 00 	mov    $0x401551,%rdi
  40127b:	ff 15 6f 5d 00 00    	call   *0x5d6f(%rip)        # 406ff0 <__libc_start_main@GLIBC_2.34>
  401281:	f4                   	hlt    
  401282:	66 2e 0f 1f 84 00 00 	cs nopw 0x0(%rax,%rax,1)
  401289:	00 00 00 
  40128c:	0f 1f 40 00          	nopl   0x0(%rax)

0000000000401290 <_dl_relocate_static_pie>:
  401290:	c3                   	ret    
  401291:	66 2e 0f 1f 84 00 00 	cs nopw 0x0(%rax,%rax,1)
  401298:	00 00 00 
  40129b:	0f 1f 44 00 00       	nopl   0x0(%rax,%rax,1)
  4012a0:	b8 b0 74 40 00       	mov    $0x4074b0,%eax
  4012a5:	48 3d b0 74 40 00    	cmp    $0x4074b0,%rax
  4012ab:	74 13                	je     4012c0 <_dl_relocate_static_pie+0x30>
  4012ad:	b8 00 00 00 00       	mov    $0x0,%eax
  4012b2:	48 85 c0             	test   %rax,%rax
  4012b5:	74 09                	je     4012c0 <_dl_relocate_static_pie+0x30>
  4012b7:	bf b0 74 40 00       	mov    $0x4074b0,%edi
  4012bc:	ff e0                	jmp    *%rax
  4012be:	66 90                	xchg   %ax,%ax
  4012c0:	c3                   	ret    
  4012c1:	0f 1f 80 00 00 00 00 	nopl   0x0(%rax)
  4012c8:	be b0 74 40 00       	mov    $0x4074b0,%esi
  4012cd:	48 81 ee b0 74 40 00 	sub    $0x4074b0,%rsi
  4012d4:	48 89 f0             	mov    %rsi,%rax
  4012d7:	48 c1 ee 3f          	shr    $0x3f,%rsi
  4012db:	48 c1 f8 03          	sar    $0x3,%rax
  4012df:	48 01 c6             	add    %rax,%rsi
  4012e2:	48 d1 fe             	sar    %rsi
  4012e5:	74 11                	je     4012f8 <_dl_relocate_static_pie+0x68>
  4012e7:	b8 00 00 00 00       	mov    $0x0,%eax
  4012ec:	48 85 c0             	test   %rax,%rax
  4012ef:	74 07                	je     4012f8 <_dl_relocate_static_pie+0x68>
  4012f1:	bf b0 74 40 00       	mov    $0x4074b0,%edi
  4012f6:	ff e0                	jmp    *%rax
  4012f8:	c3                   	ret    
  4012f9:	0f 1f 80 00 00 00 00 	nopl   0x0(%rax)
  401300:	80 3d 01 62 00 00 00 	cmpb   $0x0,0x6201(%rip)        # 407508 <stderr@GLIBC_2.2.5+0x8>
  401307:	75 17                	jne    401320 <_dl_relocate_static_pie+0x90>
  401309:	55                   	push   %rbp
  40130a:	48 89 e5             	mov    %rsp,%rbp
  40130d:	e8 8e ff ff ff       	call   4012a0 <_dl_relocate_static_pie+0x10>
  401312:	c6 05 ef 61 00 00 01 	movb   $0x1,0x61ef(%rip)        # 407508 <stderr@GLIBC_2.2.5+0x8>
  401319:	5d                   	pop    %rbp
  40131a:	c3                   	ret    
  40131b:	0f 1f 44 00 00       	nopl   0x0(%rax,%rax,1)
  401320:	c3                   	ret    
  401321:	0f 1f 80 00 00 00 00 	nopl   0x0(%rax)
  401328:	eb 9e                	jmp    4012c8 <_dl_relocate_static_pie+0x38>

000000000040132a <usage>:
  40132a:	48 83 ec 08          	sub    $0x8,%rsp
  40132e:	48 89 fa             	mov    %rdi,%rdx
  401331:	83 3d 10 62 00 00 00 	cmpl   $0x0,0x6210(%rip)        # 407548 <is_checker>
  401338:	74 50                	je     40138a <usage+0x60>
  40133a:	48 8d 35 c7 2c 00 00 	lea    0x2cc7(%rip),%rsi        # 404008 <_IO_stdin_used+0x8>
  401341:	bf 01 00 00 00       	mov    $0x1,%edi
  401346:	b8 00 00 00 00       	mov    $0x0,%eax
  40134b:	e8 60 fe ff ff       	call   4011b0 <__printf_chk@plt>
  401350:	48 8d 3d e9 2c 00 00 	lea    0x2ce9(%rip),%rdi        # 404040 <_IO_stdin_used+0x40>
  401357:	e8 24 fd ff ff       	call   401080 <puts@plt>
  40135c:	48 8d 3d 55 2e 00 00 	lea    0x2e55(%rip),%rdi        # 4041b8 <_IO_stdin_used+0x1b8>
  401363:	e8 18 fd ff ff       	call   401080 <puts@plt>
  401368:	48 8d 3d f9 2c 00 00 	lea    0x2cf9(%rip),%rdi        # 404068 <_IO_stdin_used+0x68>
  40136f:	e8 0c fd ff ff       	call   401080 <puts@plt>
  401374:	48 8d 3d 57 2e 00 00 	lea    0x2e57(%rip),%rdi        # 4041d2 <_IO_stdin_used+0x1d2>
  40137b:	e8 00 fd ff ff       	call   401080 <puts@plt>
  401380:	bf 00 00 00 00       	mov    $0x0,%edi
  401385:	e8 76 fe ff ff       	call   401200 <exit@plt>
  40138a:	48 8d 35 5d 2e 00 00 	lea    0x2e5d(%rip),%rsi        # 4041ee <_IO_stdin_used+0x1ee>
  401391:	bf 01 00 00 00       	mov    $0x1,%edi
  401396:	b8 00 00 00 00       	mov    $0x0,%eax
  40139b:	e8 10 fe ff ff       	call   4011b0 <__printf_chk@plt>
  4013a0:	48 8d 3d e9 2c 00 00 	lea    0x2ce9(%rip),%rdi        # 404090 <_IO_stdin_used+0x90>
  4013a7:	e8 d4 fc ff ff       	call   401080 <puts@plt>
  4013ac:	48 8d 3d 05 2d 00 00 	lea    0x2d05(%rip),%rdi        # 4040b8 <_IO_stdin_used+0xb8>
  4013b3:	e8 c8 fc ff ff       	call   401080 <puts@plt>
  4013b8:	48 8d 3d 4d 2e 00 00 	lea    0x2e4d(%rip),%rdi        # 40420c <_IO_stdin_used+0x20c>
  4013bf:	e8 bc fc ff ff       	call   401080 <puts@plt>
  4013c4:	eb ba                	jmp    401380 <usage+0x56>

00000000004013c6 <initialize_target>:
  4013c6:	55                   	push   %rbp
  4013c7:	53                   	push   %rbx
  4013c8:	48 81 ec 18 21 00 00 	sub    $0x2118,%rsp
  4013cf:	89 f5                	mov    %esi,%ebp
  4013d1:	64 48 8b 04 25 28 00 	mov    %fs:0x28,%rax
  4013d8:	00 00 
  4013da:	48 89 84 24 08 21 00 	mov    %rax,0x2108(%rsp)
  4013e1:	00 
  4013e2:	31 c0                	xor    %eax,%eax
  4013e4:	89 3d 4e 61 00 00    	mov    %edi,0x614e(%rip)        # 407538 <check_level>
  4013ea:	8b 3d 60 5d 00 00    	mov    0x5d60(%rip),%edi        # 407150 <target_id>
  4013f0:	e8 13 1e 00 00       	call   403208 <gencookie>
  4013f5:	89 c7                	mov    %eax,%edi
  4013f7:	89 05 47 61 00 00    	mov    %eax,0x6147(%rip)        # 407544 <cookie>
  4013fd:	e8 06 1e 00 00       	call   403208 <gencookie>
  401402:	89 05 38 61 00 00    	mov    %eax,0x6138(%rip)        # 407540 <authkey>
  401408:	8b 05 42 5d 00 00    	mov    0x5d42(%rip),%eax        # 407150 <target_id>
  40140e:	8d 78 01             	lea    0x1(%rax),%edi
  401411:	e8 3a fc ff ff       	call   401050 <srandom@plt>
  401416:	e8 65 fd ff ff       	call   401180 <random@plt>
  40141b:	89 c7                	mov    %eax,%edi
  40141d:	e8 1a 03 00 00       	call   40173c <scramble>
  401422:	89 c3                	mov    %eax,%ebx
  401424:	85 ed                	test   %ebp,%ebp
  401426:	75 54                	jne    40147c <initialize_target+0xb6>
  401428:	b8 00 00 00 00       	mov    $0x0,%eax
  40142d:	01 d8                	add    %ebx,%eax
  40142f:	0f b7 c0             	movzwl %ax,%eax
  401432:	8d 04 c5 00 01 00 00 	lea    0x100(,%rax,8),%eax
  401439:	89 c0                	mov    %eax,%eax
  40143b:	48 89 05 5e 60 00 00 	mov    %rax,0x605e(%rip)        # 4074a0 <buf_offset>
  401442:	c6 05 1f 6d 00 00 63 	movb   $0x63,0x6d1f(%rip)        # 408168 <target_prefix>
  401449:	83 3d 58 60 00 00 00 	cmpl   $0x0,0x6058(%rip)        # 4074a8 <notify>
  401450:	74 09                	je     40145b <initialize_target+0x95>
  401452:	83 3d ef 60 00 00 00 	cmpl   $0x0,0x60ef(%rip)        # 407548 <is_checker>
  401459:	74 39                	je     401494 <initialize_target+0xce>
  40145b:	48 8b 84 24 08 21 00 	mov    0x2108(%rsp),%rax
  401462:	00 
  401463:	64 48 2b 04 25 28 00 	sub    %fs:0x28,%rax
  40146a:	00 00 
  40146c:	0f 85 da 00 00 00    	jne    40154c <initialize_target+0x186>
  401472:	48 81 c4 18 21 00 00 	add    $0x2118,%rsp
  401479:	5b                   	pop    %rbx
  40147a:	5d                   	pop    %rbp
  40147b:	c3                   	ret    
  40147c:	bf 00 00 00 00       	mov    $0x0,%edi
  401481:	e8 ea fc ff ff       	call   401170 <time@plt>
  401486:	89 c7                	mov    %eax,%edi
  401488:	e8 c3 fb ff ff       	call   401050 <srandom@plt>
  40148d:	e8 ee fc ff ff       	call   401180 <random@plt>
  401492:	eb 99                	jmp    40142d <initialize_target+0x67>
  401494:	48 89 e7             	mov    %rsp,%rdi
  401497:	be 00 01 00 00       	mov    $0x100,%esi
  40149c:	e8 4f fd ff ff       	call   4011f0 <gethostname@plt>
  4014a1:	89 c5                	mov    %eax,%ebp
  4014a3:	85 c0                	test   %eax,%eax
  4014a5:	75 26                	jne    4014cd <initialize_target+0x107>
  4014a7:	89 c3                	mov    %eax,%ebx
  4014a9:	48 63 c3             	movslq %ebx,%rax
  4014ac:	48 8d 15 cd 5c 00 00 	lea    0x5ccd(%rip),%rdx        # 407180 <host_table>
  4014b3:	48 8b 3c c2          	mov    (%rdx,%rax,8),%rdi
  4014b7:	48 85 ff             	test   %rdi,%rdi
  4014ba:	74 2c                	je     4014e8 <initialize_target+0x122>
  4014bc:	48 89 e6             	mov    %rsp,%rsi
  4014bf:	e8 6c fb ff ff       	call   401030 <strcasecmp@plt>
  4014c4:	85 c0                	test   %eax,%eax
  4014c6:	74 1b                	je     4014e3 <initialize_target+0x11d>
  4014c8:	83 c3 01             	add    $0x1,%ebx
  4014cb:	eb dc                	jmp    4014a9 <initialize_target+0xe3>
  4014cd:	48 8d 3d 14 2c 00 00 	lea    0x2c14(%rip),%rdi        # 4040e8 <_IO_stdin_used+0xe8>
  4014d4:	e8 a7 fb ff ff       	call   401080 <puts@plt>
  4014d9:	bf 08 00 00 00       	mov    $0x8,%edi
  4014de:	e8 1d fd ff ff       	call   401200 <exit@plt>
  4014e3:	bd 01 00 00 00       	mov    $0x1,%ebp
  4014e8:	85 ed                	test   %ebp,%ebp
  4014ea:	74 3d                	je     401529 <initialize_target+0x163>
  4014ec:	48 8d bc 24 00 01 00 	lea    0x100(%rsp),%rdi
  4014f3:	00 
  4014f4:	e8 3e 1a 00 00       	call   402f37 <init_driver>
  4014f9:	85 c0                	test   %eax,%eax
  4014fb:	0f 89 5a ff ff ff    	jns    40145b <initialize_target+0x95>
  401501:	48 8d 94 24 00 01 00 	lea    0x100(%rsp),%rdx
  401508:	00 
  401509:	48 8d 35 50 2c 00 00 	lea    0x2c50(%rip),%rsi        # 404160 <_IO_stdin_used+0x160>
  401510:	bf 01 00 00 00       	mov    $0x1,%edi
  401515:	b8 00 00 00 00       	mov    $0x0,%eax
  40151a:	e8 91 fc ff ff       	call   4011b0 <__printf_chk@plt>
  40151f:	bf 08 00 00 00       	mov    $0x8,%edi
  401524:	e8 d7 fc ff ff       	call   401200 <exit@plt>
  401529:	48 89 e2             	mov    %rsp,%rdx
  40152c:	48 8d 35 ed 2b 00 00 	lea    0x2bed(%rip),%rsi        # 404120 <_IO_stdin_used+0x120>
  401533:	bf 01 00 00 00       	mov    $0x1,%edi
  401538:	b8 00 00 00 00       	mov    $0x0,%eax
  40153d:	e8 6e fc ff ff       	call   4011b0 <__printf_chk@plt>
  401542:	bf 08 00 00 00       	mov    $0x8,%edi
  401547:	e8 b4 fc ff ff       	call   401200 <exit@plt>
  40154c:	e8 5f fb ff ff       	call   4010b0 <__stack_chk_fail@plt>

0000000000401551 <main>:
  401551:	41 56                	push   %r14
  401553:	41 55                	push   %r13
  401555:	41 54                	push   %r12
  401557:	55                   	push   %rbp
  401558:	53                   	push   %rbx
  401559:	89 fd                	mov    %edi,%ebp
  40155b:	48 89 f3             	mov    %rsi,%rbx
  40155e:	48 c7 c6 a7 22 40 00 	mov    $0x4022a7,%rsi
  401565:	bf 0b 00 00 00       	mov    $0xb,%edi
  40156a:	e8 b1 fb ff ff       	call   401120 <signal@plt>
  40156f:	48 c7 c6 53 22 40 00 	mov    $0x402253,%rsi
  401576:	bf 07 00 00 00       	mov    $0x7,%edi
  40157b:	e8 a0 fb ff ff       	call   401120 <signal@plt>
  401580:	48 c7 c6 fb 22 40 00 	mov    $0x4022fb,%rsi
  401587:	bf 04 00 00 00       	mov    $0x4,%edi
  40158c:	e8 8f fb ff ff       	call   401120 <signal@plt>
  401591:	83 3d b0 5f 00 00 00 	cmpl   $0x0,0x5fb0(%rip)        # 407548 <is_checker>
  401598:	75 26                	jne    4015c0 <main+0x6f>
  40159a:	4c 8d 25 84 2c 00 00 	lea    0x2c84(%rip),%r12        # 404225 <_IO_stdin_used+0x225>
  4015a1:	48 8b 05 18 5f 00 00 	mov    0x5f18(%rip),%rax        # 4074c0 <stdin@GLIBC_2.2.5>
  4015a8:	48 89 05 81 5f 00 00 	mov    %rax,0x5f81(%rip)        # 407530 <infile>
  4015af:	41 bd 00 00 00 00    	mov    $0x0,%r13d
  4015b5:	41 be 00 00 00 00    	mov    $0x0,%r14d
  4015bb:	e9 8d 00 00 00       	jmp    40164d <main+0xfc>
  4015c0:	48 c7 c6 4f 23 40 00 	mov    $0x40234f,%rsi
  4015c7:	bf 0e 00 00 00       	mov    $0xe,%edi
  4015cc:	e8 4f fb ff ff       	call   401120 <signal@plt>
  4015d1:	bf 05 00 00 00       	mov    $0x5,%edi
  4015d6:	e8 05 fb ff ff       	call   4010e0 <alarm@plt>
  4015db:	4c 8d 25 48 2c 00 00 	lea    0x2c48(%rip),%r12        # 40422a <_IO_stdin_used+0x22a>
  4015e2:	eb bd                	jmp    4015a1 <main+0x50>
  4015e4:	48 8b 3b             	mov    (%rbx),%rdi
  4015e7:	e8 3e fd ff ff       	call   40132a <usage>
  4015ec:	48 8d 35 da 2e 00 00 	lea    0x2eda(%rip),%rsi        # 4044cd <_IO_stdin_used+0x4cd>
  4015f3:	48 8b 3d e6 5e 00 00 	mov    0x5ee6(%rip),%rdi        # 4074e0 <optarg@GLIBC_2.2.5>
  4015fa:	e8 c1 fb ff ff       	call   4011c0 <fopen@plt>
  4015ff:	48 89 05 2a 5f 00 00 	mov    %rax,0x5f2a(%rip)        # 407530 <infile>
  401606:	48 85 c0             	test   %rax,%rax
  401609:	75 42                	jne    40164d <main+0xfc>
  40160b:	48 8b 0d ce 5e 00 00 	mov    0x5ece(%rip),%rcx        # 4074e0 <optarg@GLIBC_2.2.5>
  401612:	48 8d 15 19 2c 00 00 	lea    0x2c19(%rip),%rdx        # 404232 <_IO_stdin_used+0x232>
  401619:	be 01 00 00 00       	mov    $0x1,%esi
  40161e:	48 8b 3d db 5e 00 00 	mov    0x5edb(%rip),%rdi        # 407500 <stderr@GLIBC_2.2.5>
  401625:	e8 f6 fb ff ff       	call   401220 <__fprintf_chk@plt>
  40162a:	b8 01 00 00 00       	mov    $0x1,%eax
  40162f:	e9 da 00 00 00       	jmp    40170e <main+0x1bd>
  401634:	ba 10 00 00 00       	mov    $0x10,%edx
  401639:	be 00 00 00 00       	mov    $0x0,%esi
  40163e:	48 8b 3d 9b 5e 00 00 	mov    0x5e9b(%rip),%rdi        # 4074e0 <optarg@GLIBC_2.2.5>
  401645:	e8 96 fb ff ff       	call   4011e0 <strtoul@plt>
  40164a:	41 89 c6             	mov    %eax,%r14d
  40164d:	4c 89 e2             	mov    %r12,%rdx
  401650:	48 89 de             	mov    %rbx,%rsi
  401653:	89 ef                	mov    %ebp,%edi
  401655:	e8 76 fb ff ff       	call   4011d0 <getopt@plt>
  40165a:	3c ff                	cmp    $0xff,%al
  40165c:	74 64                	je     4016c2 <main+0x171>
  40165e:	0f be c8             	movsbl %al,%ecx
  401661:	83 e8 61             	sub    $0x61,%eax
  401664:	3c 10                	cmp    $0x10,%al
  401666:	77 3a                	ja     4016a2 <main+0x151>
  401668:	0f b6 c0             	movzbl %al,%eax
  40166b:	48 8d 15 fe 2b 00 00 	lea    0x2bfe(%rip),%rdx        # 404270 <_IO_stdin_used+0x270>
  401672:	48 63 04 82          	movslq (%rdx,%rax,4),%rax
  401676:	48 01 d0             	add    %rdx,%rax
  401679:	ff e0                	jmp    *%rax
  40167b:	ba 0a 00 00 00       	mov    $0xa,%edx
  401680:	be 00 00 00 00       	mov    $0x0,%esi
  401685:	48 8b 3d 54 5e 00 00 	mov    0x5e54(%rip),%rdi        # 4074e0 <optarg@GLIBC_2.2.5>
  40168c:	e8 bf fa ff ff       	call   401150 <strtol@plt>
  401691:	41 89 c5             	mov    %eax,%r13d
  401694:	eb b7                	jmp    40164d <main+0xfc>
  401696:	c7 05 08 5e 00 00 00 	movl   $0x0,0x5e08(%rip)        # 4074a8 <notify>
  40169d:	00 00 00 
  4016a0:	eb ab                	jmp    40164d <main+0xfc>
  4016a2:	89 ca                	mov    %ecx,%edx
  4016a4:	48 8d 35 a4 2b 00 00 	lea    0x2ba4(%rip),%rsi        # 40424f <_IO_stdin_used+0x24f>
  4016ab:	bf 01 00 00 00       	mov    $0x1,%edi
  4016b0:	b8 00 00 00 00       	mov    $0x0,%eax
  4016b5:	e8 f6 fa ff ff       	call   4011b0 <__printf_chk@plt>
  4016ba:	48 8b 3b             	mov    (%rbx),%rdi
  4016bd:	e8 68 fc ff ff       	call   40132a <usage>
  4016c2:	be 00 00 00 00       	mov    $0x0,%esi
  4016c7:	44 89 ef             	mov    %r13d,%edi
  4016ca:	e8 f7 fc ff ff       	call   4013c6 <initialize_target>
  4016cf:	83 3d 72 5e 00 00 00 	cmpl   $0x0,0x5e72(%rip)        # 407548 <is_checker>
  4016d6:	74 09                	je     4016e1 <main+0x190>
  4016d8:	44 39 35 61 5e 00 00 	cmp    %r14d,0x5e61(%rip)        # 407540 <authkey>
  4016df:	75 36                	jne    401717 <main+0x1c6>
  4016e1:	8b 15 5d 5e 00 00    	mov    0x5e5d(%rip),%edx        # 407544 <cookie>
  4016e7:	48 8d 35 74 2b 00 00 	lea    0x2b74(%rip),%rsi        # 404262 <_IO_stdin_used+0x262>
  4016ee:	bf 01 00 00 00       	mov    $0x1,%edi
  4016f3:	b8 00 00 00 00       	mov    $0x0,%eax
  4016f8:	e8 b3 fa ff ff       	call   4011b0 <__printf_chk@plt>
  4016fd:	48 8b 3d 9c 5d 00 00 	mov    0x5d9c(%rip),%rdi        # 4074a0 <buf_offset>
  401704:	e8 52 0d 00 00       	call   40245b <stable_launch>
  401709:	b8 00 00 00 00       	mov    $0x0,%eax
  40170e:	5b                   	pop    %rbx
  40170f:	5d                   	pop    %rbp
  401710:	41 5c                	pop    %r12
  401712:	41 5d                	pop    %r13
  401714:	41 5e                	pop    %r14
  401716:	c3                   	ret    
  401717:	44 89 f2             	mov    %r14d,%edx
  40171a:	48 8d 35 67 2a 00 00 	lea    0x2a67(%rip),%rsi        # 404188 <_IO_stdin_used+0x188>
  401721:	bf 01 00 00 00       	mov    $0x1,%edi
  401726:	b8 00 00 00 00       	mov    $0x0,%eax
  40172b:	e8 80 fa ff ff       	call   4011b0 <__printf_chk@plt>
  401730:	b8 00 00 00 00       	mov    $0x0,%eax
  401735:	e8 85 07 00 00       	call   401ebf <check_fail>
  40173a:	eb a5                	jmp    4016e1 <main+0x190>

000000000040173c <scramble>:
  40173c:	48 83 ec 38          	sub    $0x38,%rsp
  401740:	64 48 8b 04 25 28 00 	mov    %fs:0x28,%rax
  401747:	00 00 
  401749:	48 89 44 24 28       	mov    %rax,0x28(%rsp)
  40174e:	31 c0                	xor    %eax,%eax
  401750:	eb 10                	jmp    401762 <scramble+0x26>
  401752:	69 d0 98 45 00 00    	imul   $0x4598,%eax,%edx
  401758:	01 fa                	add    %edi,%edx
  40175a:	89 c1                	mov    %eax,%ecx
  40175c:	89 14 8c             	mov    %edx,(%rsp,%rcx,4)
  40175f:	83 c0 01             	add    $0x1,%eax
  401762:	83 f8 09             	cmp    $0x9,%eax
  401765:	76 eb                	jbe    401752 <scramble+0x16>
  401767:	8b 44 24 24          	mov    0x24(%rsp),%eax
  40176b:	69 c0 22 1a 00 00    	imul   $0x1a22,%eax,%eax
  401771:	89 44 24 24          	mov    %eax,0x24(%rsp)
  401775:	8b 44 24 0c          	mov    0xc(%rsp),%eax
  401779:	69 c0 57 5a 00 00    	imul   $0x5a57,%eax,%eax
  40177f:	89 44 24 0c          	mov    %eax,0xc(%rsp)
  401783:	8b 44 24 04          	mov    0x4(%rsp),%eax
  401787:	69 c0 de 08 00 00    	imul   $0x8de,%eax,%eax
  40178d:	89 44 24 04          	mov    %eax,0x4(%rsp)
  401791:	8b 44 24 0c          	mov    0xc(%rsp),%eax
  401795:	69 c0 b9 11 00 00    	imul   $0x11b9,%eax,%eax
  40179b:	89 44 24 0c          	mov    %eax,0xc(%rsp)
  40179f:	8b 44 24 04          	mov    0x4(%rsp),%eax
  4017a3:	69 c0 f7 9c 00 00    	imul   $0x9cf7,%eax,%eax
  4017a9:	89 44 24 04          	mov    %eax,0x4(%rsp)
  4017ad:	8b 44 24 1c          	mov    0x1c(%rsp),%eax
  4017b1:	69 c0 64 35 00 00    	imul   $0x3564,%eax,%eax
  4017b7:	89 44 24 1c          	mov    %eax,0x1c(%rsp)
  4017bb:	8b 44 24 10          	mov    0x10(%rsp),%eax
  4017bf:	69 c0 7f af 00 00    	imul   $0xaf7f,%eax,%eax
  4017c5:	89 44 24 10          	mov    %eax,0x10(%rsp)
  4017c9:	8b 44 24 20          	mov    0x20(%rsp),%eax
  4017cd:	69 c0 d4 f2 00 00    	imul   $0xf2d4,%eax,%eax
  4017d3:	89 44 24 20          	mov    %eax,0x20(%rsp)
  4017d7:	8b 44 24 1c          	mov    0x1c(%rsp),%eax
  4017db:	69 c0 c1 5c 00 00    	imul   $0x5cc1,%eax,%eax
  4017e1:	89 44 24 1c          	mov    %eax,0x1c(%rsp)
  4017e5:	8b 44 24 20          	mov    0x20(%rsp),%eax
  4017e9:	69 c0 51 0e 00 00    	imul   $0xe51,%eax,%eax
  4017ef:	89 44 24 20          	mov    %eax,0x20(%rsp)
  4017f3:	8b 44 24 08          	mov    0x8(%rsp),%eax
  4017f7:	69 c0 69 a4 00 00    	imul   $0xa469,%eax,%eax
  4017fd:	89 44 24 08          	mov    %eax,0x8(%rsp)
  401801:	8b 44 24 1c          	mov    0x1c(%rsp),%eax
  401805:	69 c0 d4 28 00 00    	imul   $0x28d4,%eax,%eax
  40180b:	89 44 24 1c          	mov    %eax,0x1c(%rsp)
  40180f:	8b 44 24 1c          	mov    0x1c(%rsp),%eax
  401813:	69 c0 36 28 00 00    	imul   $0x2836,%eax,%eax
  401819:	89 44 24 1c          	mov    %eax,0x1c(%rsp)
  40181d:	8b 44 24 0c          	mov    0xc(%rsp),%eax
  401821:	69 c0 57 9d 00 00    	imul   $0x9d57,%eax,%eax
  401827:	89 44 24 0c          	mov    %eax,0xc(%rsp)
  40182b:	8b 44 24 08          	mov    0x8(%rsp),%eax
  40182f:	69 c0 91 13 00 00    	imul   $0x1391,%eax,%eax
  401835:	89 44 24 08          	mov    %eax,0x8(%rsp)
  401839:	8b 44 24 1c          	mov    0x1c(%rsp),%eax
  40183d:	69 c0 6c a4 00 00    	imul   $0xa46c,%eax,%eax
  401843:	89 44 24 1c          	mov    %eax,0x1c(%rsp)
  401847:	8b 44 24 0c          	mov    0xc(%rsp),%eax
  40184b:	69 c0 4d fb 00 00    	imul   $0xfb4d,%eax,%eax
  401851:	89 44 24 0c          	mov    %eax,0xc(%rsp)
  401855:	8b 44 24 14          	mov    0x14(%rsp),%eax
  401859:	69 c0 81 86 00 00    	imul   $0x8681,%eax,%eax
  40185f:	89 44 24 14          	mov    %eax,0x14(%rsp)
  401863:	8b 04 24             	mov    (%rsp),%eax
  401866:	69 c0 99 c8 00 00    	imul   $0xc899,%eax,%eax
  40186c:	89 04 24             	mov    %eax,(%rsp)
  40186f:	8b 44 24 18          	mov    0x18(%rsp),%eax
  401873:	69 c0 ac 9e 00 00    	imul   $0x9eac,%eax,%eax
  401879:	89 44 24 18          	mov    %eax,0x18(%rsp)
  40187d:	8b 44 24 1c          	mov    0x1c(%rsp),%eax
  401881:	69 c0 af 84 00 00    	imul   $0x84af,%eax,%eax
  401887:	89 44 24 1c          	mov    %eax,0x1c(%rsp)
  40188b:	8b 04 24             	mov    (%rsp),%eax
  40188e:	69 c0 97 9e 00 00    	imul   $0x9e97,%eax,%eax
  401894:	89 04 24             	mov    %eax,(%rsp)
  401897:	8b 44 24 18          	mov    0x18(%rsp),%eax
  40189b:	69 c0 07 8d 00 00    	imul   $0x8d07,%eax,%eax
  4018a1:	89 44 24 18          	mov    %eax,0x18(%rsp)
  4018a5:	8b 44 24 20          	mov    0x20(%rsp),%eax
  4018a9:	69 c0 c5 c1 00 00    	imul   $0xc1c5,%eax,%eax
  4018af:	89 44 24 20          	mov    %eax,0x20(%rsp)
  4018b3:	8b 44 24 18          	mov    0x18(%rsp),%eax
  4018b7:	69 c0 81 21 00 00    	imul   $0x2181,%eax,%eax
  4018bd:	89 44 24 18          	mov    %eax,0x18(%rsp)
  4018c1:	8b 44 24 08          	mov    0x8(%rsp),%eax
  4018c5:	69 c0 f7 d3 00 00    	imul   $0xd3f7,%eax,%eax
  4018cb:	89 44 24 08          	mov    %eax,0x8(%rsp)
  4018cf:	8b 44 24 24          	mov    0x24(%rsp),%eax
  4018d3:	69 c0 d4 df 00 00    	imul   $0xdfd4,%eax,%eax
  4018d9:	89 44 24 24          	mov    %eax,0x24(%rsp)
  4018dd:	8b 44 24 10          	mov    0x10(%rsp),%eax
  4018e1:	69 c0 12 aa 00 00    	imul   $0xaa12,%eax,%eax
  4018e7:	89 44 24 10          	mov    %eax,0x10(%rsp)
  4018eb:	8b 44 24 1c          	mov    0x1c(%rsp),%eax
  4018ef:	69 c0 15 e9 00 00    	imul   $0xe915,%eax,%eax
  4018f5:	89 44 24 1c          	mov    %eax,0x1c(%rsp)
  4018f9:	8b 44 24 10          	mov    0x10(%rsp),%eax
  4018fd:	69 c0 dd 66 00 00    	imul   $0x66dd,%eax,%eax
  401903:	89 44 24 10          	mov    %eax,0x10(%rsp)
  401907:	8b 44 24 04          	mov    0x4(%rsp),%eax
  40190b:	69 c0 39 28 00 00    	imul   $0x2839,%eax,%eax
  401911:	89 44 24 04          	mov    %eax,0x4(%rsp)
  401915:	8b 44 24 0c          	mov    0xc(%rsp),%eax
  401919:	69 c0 59 2a 00 00    	imul   $0x2a59,%eax,%eax
  40191f:	89 44 24 0c          	mov    %eax,0xc(%rsp)
  401923:	8b 44 24 18          	mov    0x18(%rsp),%eax
  401927:	69 c0 0d 0a 00 00    	imul   $0xa0d,%eax,%eax
  40192d:	89 44 24 18          	mov    %eax,0x18(%rsp)
  401931:	8b 44 24 10          	mov    0x10(%rsp),%eax
  401935:	69 c0 b2 27 00 00    	imul   $0x27b2,%eax,%eax
  40193b:	89 44 24 10          	mov    %eax,0x10(%rsp)
  40193f:	8b 44 24 24          	mov    0x24(%rsp),%eax
  401943:	69 c0 15 49 00 00    	imul   $0x4915,%eax,%eax
  401949:	89 44 24 24          	mov    %eax,0x24(%rsp)
  40194d:	8b 44 24 08          	mov    0x8(%rsp),%eax
  401951:	69 c0 36 38 00 00    	imul   $0x3836,%eax,%eax
  401957:	89 44 24 08          	mov    %eax,0x8(%rsp)
  40195b:	8b 44 24 18          	mov    0x18(%rsp),%eax
  40195f:	69 c0 70 9a 00 00    	imul   $0x9a70,%eax,%eax
  401965:	89 44 24 18          	mov    %eax,0x18(%rsp)
  401969:	8b 44 24 04          	mov    0x4(%rsp),%eax
  40196d:	69 c0 f3 01 00 00    	imul   $0x1f3,%eax,%eax
  401973:	89 44 24 04          	mov    %eax,0x4(%rsp)
  401977:	8b 44 24 10          	mov    0x10(%rsp),%eax
  40197b:	69 c0 3a 68 00 00    	imul   $0x683a,%eax,%eax
  401981:	89 44 24 10          	mov    %eax,0x10(%rsp)
  401985:	8b 44 24 1c          	mov    0x1c(%rsp),%eax
  401989:	69 c0 3f 11 00 00    	imul   $0x113f,%eax,%eax
  40198f:	89 44 24 1c          	mov    %eax,0x1c(%rsp)
  401993:	8b 04 24             	mov    (%rsp),%eax
  401996:	69 c0 ce 93 00 00    	imul   $0x93ce,%eax,%eax
  40199c:	89 04 24             	mov    %eax,(%rsp)
  40199f:	8b 04 24             	mov    (%rsp),%eax
  4019a2:	69 c0 a6 4f 00 00    	imul   $0x4fa6,%eax,%eax
  4019a8:	89 04 24             	mov    %eax,(%rsp)
  4019ab:	8b 44 24 10          	mov    0x10(%rsp),%eax
  4019af:	69 c0 02 e2 00 00    	imul   $0xe202,%eax,%eax
  4019b5:	89 44 24 10          	mov    %eax,0x10(%rsp)
  4019b9:	8b 44 24 04          	mov    0x4(%rsp),%eax
  4019bd:	69 c0 ac 7b 00 00    	imul   $0x7bac,%eax,%eax
  4019c3:	89 44 24 04          	mov    %eax,0x4(%rsp)
  4019c7:	8b 44 24 14          	mov    0x14(%rsp),%eax
  4019cb:	69 c0 21 41 00 00    	imul   $0x4121,%eax,%eax
  4019d1:	89 44 24 14          	mov    %eax,0x14(%rsp)
  4019d5:	8b 44 24 0c          	mov    0xc(%rsp),%eax
  4019d9:	69 c0 bd c7 00 00    	imul   $0xc7bd,%eax,%eax
  4019df:	89 44 24 0c          	mov    %eax,0xc(%rsp)
  4019e3:	8b 04 24             	mov    (%rsp),%eax
  4019e6:	69 c0 d3 ed 00 00    	imul   $0xedd3,%eax,%eax
  4019ec:	89 04 24             	mov    %eax,(%rsp)
  4019ef:	8b 44 24 18          	mov    0x18(%rsp),%eax
  4019f3:	69 c0 e2 8c 00 00    	imul   $0x8ce2,%eax,%eax
  4019f9:	89 44 24 18          	mov    %eax,0x18(%rsp)
  4019fd:	8b 44 24 10          	mov    0x10(%rsp),%eax
  401a01:	69 c0 f1 a2 00 00    	imul   $0xa2f1,%eax,%eax
  401a07:	89 44 24 10          	mov    %eax,0x10(%rsp)
  401a0b:	8b 44 24 18          	mov    0x18(%rsp),%eax
  401a0f:	69 c0 86 ca 00 00    	imul   $0xca86,%eax,%eax
  401a15:	89 44 24 18          	mov    %eax,0x18(%rsp)
  401a19:	8b 44 24 08          	mov    0x8(%rsp),%eax
  401a1d:	69 c0 f3 7a 00 00    	imul   $0x7af3,%eax,%eax
  401a23:	89 44 24 08          	mov    %eax,0x8(%rsp)
  401a27:	8b 44 24 14          	mov    0x14(%rsp),%eax
  401a2b:	69 c0 ca b9 00 00    	imul   $0xb9ca,%eax,%eax
  401a31:	89 44 24 14          	mov    %eax,0x14(%rsp)
  401a35:	8b 44 24 0c          	mov    0xc(%rsp),%eax
  401a39:	69 c0 8a d9 00 00    	imul   $0xd98a,%eax,%eax
  401a3f:	89 44 24 0c          	mov    %eax,0xc(%rsp)
  401a43:	8b 44 24 08          	mov    0x8(%rsp),%eax
  401a47:	69 c0 da 3c 00 00    	imul   $0x3cda,%eax,%eax
  401a4d:	89 44 24 08          	mov    %eax,0x8(%rsp)
  401a51:	8b 04 24             	mov    (%rsp),%eax
  401a54:	69 c0 75 7f 00 00    	imul   $0x7f75,%eax,%eax
  401a5a:	89 04 24             	mov    %eax,(%rsp)
  401a5d:	8b 44 24 1c          	mov    0x1c(%rsp),%eax
  401a61:	69 c0 80 cb 00 00    	imul   $0xcb80,%eax,%eax
  401a67:	89 44 24 1c          	mov    %eax,0x1c(%rsp)
  401a6b:	8b 44 24 10          	mov    0x10(%rsp),%eax
  401a6f:	69 c0 50 33 00 00    	imul   $0x3350,%eax,%eax
  401a75:	89 44 24 10          	mov    %eax,0x10(%rsp)
  401a79:	8b 44 24 10          	mov    0x10(%rsp),%eax
  401a7d:	69 c0 e5 86 00 00    	imul   $0x86e5,%eax,%eax
  401a83:	89 44 24 10          	mov    %eax,0x10(%rsp)
  401a87:	8b 44 24 14          	mov    0x14(%rsp),%eax
  401a8b:	69 c0 de 14 00 00    	imul   $0x14de,%eax,%eax
  401a91:	89 44 24 14          	mov    %eax,0x14(%rsp)
  401a95:	8b 44 24 24          	mov    0x24(%rsp),%eax
  401a99:	69 c0 69 e0 00 00    	imul   $0xe069,%eax,%eax
  401a9f:	89 44 24 24          	mov    %eax,0x24(%rsp)
  401aa3:	8b 44 24 10          	mov    0x10(%rsp),%eax
  401aa7:	69 c0 1b e5 00 00    	imul   $0xe51b,%eax,%eax
  401aad:	89 44 24 10          	mov    %eax,0x10(%rsp)
  401ab1:	8b 44 24 08          	mov    0x8(%rsp),%eax
  401ab5:	69 c0 5a bf 00 00    	imul   $0xbf5a,%eax,%eax
  401abb:	89 44 24 08          	mov    %eax,0x8(%rsp)
  401abf:	8b 44 24 20          	mov    0x20(%rsp),%eax
  401ac3:	69 c0 3d 9a 00 00    	imul   $0x9a3d,%eax,%eax
  401ac9:	89 44 24 20          	mov    %eax,0x20(%rsp)
  401acd:	8b 44 24 10          	mov    0x10(%rsp),%eax
  401ad1:	69 c0 ce ca 00 00    	imul   $0xcace,%eax,%eax
  401ad7:	89 44 24 10          	mov    %eax,0x10(%rsp)
  401adb:	8b 04 24             	mov    (%rsp),%eax
  401ade:	69 c0 d1 00 00 00    	imul   $0xd1,%eax,%eax
  401ae4:	89 04 24             	mov    %eax,(%rsp)
  401ae7:	8b 44 24 08          	mov    0x8(%rsp),%eax
  401aeb:	69 c0 34 29 00 00    	imul   $0x2934,%eax,%eax
  401af1:	89 44 24 08          	mov    %eax,0x8(%rsp)
  401af5:	8b 04 24             	mov    (%rsp),%eax
  401af8:	69 c0 10 98 00 00    	imul   $0x9810,%eax,%eax
  401afe:	89 04 24             	mov    %eax,(%rsp)
  401b01:	8b 44 24 0c          	mov    0xc(%rsp),%eax
  401b05:	69 c0 28 91 00 00    	imul   $0x9128,%eax,%eax
  401b0b:	89 44 24 0c          	mov    %eax,0xc(%rsp)
  401b0f:	8b 44 24 18          	mov    0x18(%rsp),%eax
  401b13:	69 c0 bc 9e 00 00    	imul   $0x9ebc,%eax,%eax
  401b19:	89 44 24 18          	mov    %eax,0x18(%rsp)
  401b1d:	8b 44 24 0c          	mov    0xc(%rsp),%eax
  401b21:	69 c0 5f b3 00 00    	imul   $0xb35f,%eax,%eax
  401b27:	89 44 24 0c          	mov    %eax,0xc(%rsp)
  401b2b:	8b 44 24 1c          	mov    0x1c(%rsp),%eax
  401b2f:	69 c0 1c 1c 00 00    	imul   $0x1c1c,%eax,%eax
  401b35:	89 44 24 1c          	mov    %eax,0x1c(%rsp)
  401b39:	8b 44 24 24          	mov    0x24(%rsp),%eax
  401b3d:	69 c0 75 31 00 00    	imul   $0x3175,%eax,%eax
  401b43:	89 44 24 24          	mov    %eax,0x24(%rsp)
  401b47:	8b 44 24 08          	mov    0x8(%rsp),%eax
  401b4b:	69 c0 05 9a 00 00    	imul   $0x9a05,%eax,%eax
  401b51:	89 44 24 08          	mov    %eax,0x8(%rsp)
  401b55:	8b 44 24 24          	mov    0x24(%rsp),%eax
  401b59:	69 c0 bf 64 00 00    	imul   $0x64bf,%eax,%eax
  401b5f:	89 44 24 24          	mov    %eax,0x24(%rsp)
  401b63:	8b 44 24 04          	mov    0x4(%rsp),%eax
  401b67:	69 c0 ec ba 00 00    	imul   $0xbaec,%eax,%eax
  401b6d:	89 44 24 04          	mov    %eax,0x4(%rsp)
  401b71:	8b 44 24 0c          	mov    0xc(%rsp),%eax
  401b75:	69 c0 e3 04 00 00    	imul   $0x4e3,%eax,%eax
  401b7b:	89 44 24 0c          	mov    %eax,0xc(%rsp)
  401b7f:	8b 44 24 14          	mov    0x14(%rsp),%eax
  401b83:	69 c0 4f ed 00 00    	imul   $0xed4f,%eax,%eax
  401b89:	89 44 24 14          	mov    %eax,0x14(%rsp)
  401b8d:	8b 44 24 08          	mov    0x8(%rsp),%eax
  401b91:	69 c0 f5 72 00 00    	imul   $0x72f5,%eax,%eax
  401b97:	89 44 24 08          	mov    %eax,0x8(%rsp)
  401b9b:	8b 44 24 14          	mov    0x14(%rsp),%eax
  401b9f:	69 c0 7a 10 00 00    	imul   $0x107a,%eax,%eax
  401ba5:	89 44 24 14          	mov    %eax,0x14(%rsp)
  401ba9:	8b 44 24 04          	mov    0x4(%rsp),%eax
  401bad:	69 c0 ba c4 00 00    	imul   $0xc4ba,%eax,%eax
  401bb3:	89 44 24 04          	mov    %eax,0x4(%rsp)
  401bb7:	8b 44 24 20          	mov    0x20(%rsp),%eax
  401bbb:	69 c0 17 d3 00 00    	imul   $0xd317,%eax,%eax
  401bc1:	89 44 24 20          	mov    %eax,0x20(%rsp)
  401bc5:	8b 44 24 04          	mov    0x4(%rsp),%eax
  401bc9:	69 c0 0f 8d 00 00    	imul   $0x8d0f,%eax,%eax
  401bcf:	89 44 24 04          	mov    %eax,0x4(%rsp)
  401bd3:	8b 44 24 0c          	mov    0xc(%rsp),%eax
  401bd7:	69 c0 ed d0 00 00    	imul   $0xd0ed,%eax,%eax
  401bdd:	89 44 24 0c          	mov    %eax,0xc(%rsp)
  401be1:	8b 44 24 24          	mov    0x24(%rsp),%eax
  401be5:	69 c0 c2 dc 00 00    	imul   $0xdcc2,%eax,%eax
  401beb:	89 44 24 24          	mov    %eax,0x24(%rsp)
  401bef:	8b 44 24 08          	mov    0x8(%rsp),%eax
  401bf3:	69 c0 3a ec 00 00    	imul   $0xec3a,%eax,%eax
  401bf9:	89 44 24 08          	mov    %eax,0x8(%rsp)
  401bfd:	8b 04 24             	mov    (%rsp),%eax
  401c00:	69 c0 da 8d 00 00    	imul   $0x8dda,%eax,%eax
  401c06:	89 04 24             	mov    %eax,(%rsp)
  401c09:	8b 44 24 1c          	mov    0x1c(%rsp),%eax
  401c0d:	69 c0 01 0f 00 00    	imul   $0xf01,%eax,%eax
  401c13:	89 44 24 1c          	mov    %eax,0x1c(%rsp)
  401c17:	8b 44 24 14          	mov    0x14(%rsp),%eax
  401c1b:	69 c0 c3 57 00 00    	imul   $0x57c3,%eax,%eax
  401c21:	89 44 24 14          	mov    %eax,0x14(%rsp)
  401c25:	b8 00 00 00 00       	mov    $0x0,%eax
  401c2a:	ba 00 00 00 00       	mov    $0x0,%edx
  401c2f:	eb 0a                	jmp    401c3b <scramble+0x4ff>
  401c31:	89 c1                	mov    %eax,%ecx
  401c33:	8b 0c 8c             	mov    (%rsp,%rcx,4),%ecx
  401c36:	01 ca                	add    %ecx,%edx
  401c38:	83 c0 01             	add    $0x1,%eax
  401c3b:	83 f8 09             	cmp    $0x9,%eax
  401c3e:	76 f1                	jbe    401c31 <scramble+0x4f5>
  401c40:	48 8b 44 24 28       	mov    0x28(%rsp),%rax
  401c45:	64 48 2b 04 25 28 00 	sub    %fs:0x28,%rax
  401c4c:	00 00 
  401c4e:	75 07                	jne    401c57 <scramble+0x51b>
  401c50:	89 d0                	mov    %edx,%eax
  401c52:	48 83 c4 38          	add    $0x38,%rsp
  401c56:	c3                   	ret    
  401c57:	e8 54 f4 ff ff       	call   4010b0 <__stack_chk_fail@plt>

0000000000401c5c <getbuf>:
  401c5c:	48 83 ec 28          	sub    $0x28,%rsp
  401c60:	48 89 e7             	mov    %rsp,%rdi
  401c63:	e8 8f 02 00 00       	call   401ef7 <Gets>
  401c68:	b8 01 00 00 00       	mov    $0x1,%eax
  401c6d:	48 83 c4 28          	add    $0x28,%rsp
  401c71:	c3                   	ret    

0000000000401c72 <touch1>:
  401c72:	48 83 ec 08          	sub    $0x8,%rsp
  401c76:	c7 05 bc 58 00 00 01 	movl   $0x1,0x58bc(%rip)        # 40753c <vlevel>
  401c7d:	00 00 00 
  401c80:	48 8d 3d 99 26 00 00 	lea    0x2699(%rip),%rdi        # 404320 <_IO_stdin_used+0x320>
  401c87:	e8 f4 f3 ff ff       	call   401080 <puts@plt>
  401c8c:	bf 01 00 00 00       	mov    $0x1,%edi
  401c91:	e8 c5 04 00 00       	call   40215b <validate>
  401c96:	bf 00 00 00 00       	mov    $0x0,%edi
  401c9b:	e8 60 f5 ff ff       	call   401200 <exit@plt>

0000000000401ca0 <touch2>:
  401ca0:	48 83 ec 08          	sub    $0x8,%rsp
  401ca4:	89 fa                	mov    %edi,%edx
  401ca6:	c7 05 8c 58 00 00 02 	movl   $0x2,0x588c(%rip)        # 40753c <vlevel>
  401cad:	00 00 00 
  401cb0:	39 3d 8e 58 00 00    	cmp    %edi,0x588e(%rip)        # 407544 <cookie>
  401cb6:	74 2a                	je     401ce2 <touch2+0x42>
  401cb8:	48 8d 35 b1 26 00 00 	lea    0x26b1(%rip),%rsi        # 404370 <_IO_stdin_used+0x370>
  401cbf:	bf 01 00 00 00       	mov    $0x1,%edi
  401cc4:	b8 00 00 00 00       	mov    $0x0,%eax
  401cc9:	e8 e2 f4 ff ff       	call   4011b0 <__printf_chk@plt>
  401cce:	bf 02 00 00 00       	mov    $0x2,%edi
  401cd3:	e8 53 05 00 00       	call   40222b <fail>
  401cd8:	bf 00 00 00 00       	mov    $0x0,%edi
  401cdd:	e8 1e f5 ff ff       	call   401200 <exit@plt>
  401ce2:	48 8d 35 5f 26 00 00 	lea    0x265f(%rip),%rsi        # 404348 <_IO_stdin_used+0x348>
  401ce9:	bf 01 00 00 00       	mov    $0x1,%edi
  401cee:	b8 00 00 00 00       	mov    $0x0,%eax
  401cf3:	e8 b8 f4 ff ff       	call   4011b0 <__printf_chk@plt>
  401cf8:	bf 02 00 00 00       	mov    $0x2,%edi
  401cfd:	e8 59 04 00 00       	call   40215b <validate>
  401d02:	eb d4                	jmp    401cd8 <touch2+0x38>

0000000000401d04 <hexmatch>:
  401d04:	41 54                	push   %r12
  401d06:	55                   	push   %rbp
  401d07:	53                   	push   %rbx
  401d08:	48 83 c4 80          	add    $0xffffffffffffff80,%rsp
  401d0c:	89 fd                	mov    %edi,%ebp
  401d0e:	48 89 f3             	mov    %rsi,%rbx
  401d11:	64 48 8b 04 25 28 00 	mov    %fs:0x28,%rax
  401d18:	00 00 
  401d1a:	48 89 44 24 78       	mov    %rax,0x78(%rsp)
  401d1f:	31 c0                	xor    %eax,%eax
  401d21:	e8 5a f4 ff ff       	call   401180 <random@plt>
  401d26:	48 89 c1             	mov    %rax,%rcx
  401d29:	48 ba 0b d7 a3 70 3d 	movabs $0xa3d70a3d70a3d70b,%rdx
  401d30:	0a d7 a3 
  401d33:	48 f7 ea             	imul   %rdx
  401d36:	48 01 ca             	add    %rcx,%rdx
  401d39:	48 c1 fa 06          	sar    $0x6,%rdx
  401d3d:	48 89 c8             	mov    %rcx,%rax
  401d40:	48 c1 f8 3f          	sar    $0x3f,%rax
  401d44:	48 29 c2             	sub    %rax,%rdx
  401d47:	48 8d 04 92          	lea    (%rdx,%rdx,4),%rax
  401d4b:	48 8d 04 80          	lea    (%rax,%rax,4),%rax
  401d4f:	48 c1 e0 02          	shl    $0x2,%rax
  401d53:	48 29 c1             	sub    %rax,%rcx
  401d56:	4c 8d 24 0c          	lea    (%rsp,%rcx,1),%r12
  401d5a:	41 89 e8             	mov    %ebp,%r8d
  401d5d:	48 8d 0d d9 25 00 00 	lea    0x25d9(%rip),%rcx        # 40433d <_IO_stdin_used+0x33d>
  401d64:	48 c7 c2 ff ff ff ff 	mov    $0xffffffffffffffff,%rdx
  401d6b:	be 01 00 00 00       	mov    $0x1,%esi
  401d70:	4c 89 e7             	mov    %r12,%rdi
  401d73:	b8 00 00 00 00       	mov    $0x0,%eax
  401d78:	e8 c3 f4 ff ff       	call   401240 <__sprintf_chk@plt>
  401d7d:	ba 09 00 00 00       	mov    $0x9,%edx
  401d82:	4c 89 e6             	mov    %r12,%rsi
  401d85:	48 89 df             	mov    %rbx,%rdi
  401d88:	e8 d3 f2 ff ff       	call   401060 <strncmp@plt>
  401d8d:	85 c0                	test   %eax,%eax
  401d8f:	0f 94 c0             	sete   %al
  401d92:	48 8b 54 24 78       	mov    0x78(%rsp),%rdx
  401d97:	64 48 2b 14 25 28 00 	sub    %fs:0x28,%rdx
  401d9e:	00 00 
  401da0:	75 0c                	jne    401dae <hexmatch+0xaa>
  401da2:	0f b6 c0             	movzbl %al,%eax
  401da5:	48 83 ec 80          	sub    $0xffffffffffffff80,%rsp
  401da9:	5b                   	pop    %rbx
  401daa:	5d                   	pop    %rbp
  401dab:	41 5c                	pop    %r12
  401dad:	c3                   	ret    
  401dae:	e8 fd f2 ff ff       	call   4010b0 <__stack_chk_fail@plt>

0000000000401db3 <touch3>:
  401db3:	53                   	push   %rbx
  401db4:	48 89 fb             	mov    %rdi,%rbx
  401db7:	c7 05 7b 57 00 00 03 	movl   $0x3,0x577b(%rip)        # 40753c <vlevel>
  401dbe:	00 00 00 
  401dc1:	48 89 fe             	mov    %rdi,%rsi
  401dc4:	8b 3d 7a 57 00 00    	mov    0x577a(%rip),%edi        # 407544 <cookie>
  401dca:	e8 35 ff ff ff       	call   401d04 <hexmatch>
  401dcf:	85 c0                	test   %eax,%eax
  401dd1:	74 2d                	je     401e00 <touch3+0x4d>
  401dd3:	48 89 da             	mov    %rbx,%rdx
  401dd6:	48 8d 35 bb 25 00 00 	lea    0x25bb(%rip),%rsi        # 404398 <_IO_stdin_used+0x398>
  401ddd:	bf 01 00 00 00       	mov    $0x1,%edi
  401de2:	b8 00 00 00 00       	mov    $0x0,%eax
  401de7:	e8 c4 f3 ff ff       	call   4011b0 <__printf_chk@plt>
  401dec:	bf 03 00 00 00       	mov    $0x3,%edi
  401df1:	e8 65 03 00 00       	call   40215b <validate>
  401df6:	bf 00 00 00 00       	mov    $0x0,%edi
  401dfb:	e8 00 f4 ff ff       	call   401200 <exit@plt>
  401e00:	48 89 da             	mov    %rbx,%rdx
  401e03:	48 8d 35 b6 25 00 00 	lea    0x25b6(%rip),%rsi        # 4043c0 <_IO_stdin_used+0x3c0>
  401e0a:	bf 01 00 00 00       	mov    $0x1,%edi
  401e0f:	b8 00 00 00 00       	mov    $0x0,%eax
  401e14:	e8 97 f3 ff ff       	call   4011b0 <__printf_chk@plt>
  401e19:	bf 03 00 00 00       	mov    $0x3,%edi
  401e1e:	e8 08 04 00 00       	call   40222b <fail>
  401e23:	eb d1                	jmp    401df6 <touch3+0x43>

0000000000401e25 <test>:
  401e25:	48 83 ec 08          	sub    $0x8,%rsp
  401e29:	b8 00 00 00 00       	mov    $0x0,%eax
  401e2e:	e8 29 fe ff ff       	call   401c5c <getbuf>
  401e33:	89 c2                	mov    %eax,%edx
  401e35:	48 8d 35 ac 25 00 00 	lea    0x25ac(%rip),%rsi        # 4043e8 <_IO_stdin_used+0x3e8>
  401e3c:	bf 01 00 00 00       	mov    $0x1,%edi
  401e41:	b8 00 00 00 00       	mov    $0x0,%eax
  401e46:	e8 65 f3 ff ff       	call   4011b0 <__printf_chk@plt>
  401e4b:	48 83 c4 08          	add    $0x8,%rsp
  401e4f:	c3                   	ret    

0000000000401e50 <save_char>:
  401e50:	8b 05 0e 63 00 00    	mov    0x630e(%rip),%eax        # 408164 <gets_cnt>
  401e56:	3d ff 03 00 00       	cmp    $0x3ff,%eax
  401e5b:	7f 4a                	jg     401ea7 <save_char+0x57>
  401e5d:	89 f9                	mov    %edi,%ecx
  401e5f:	c0 e9 04             	shr    $0x4,%cl
  401e62:	8d 14 40             	lea    (%rax,%rax,2),%edx
  401e65:	4c 8d 05 a4 28 00 00 	lea    0x28a4(%rip),%r8        # 404710 <trans_char>
  401e6c:	83 e1 0f             	and    $0xf,%ecx
  401e6f:	45 0f b6 0c 08       	movzbl (%r8,%rcx,1),%r9d
  401e74:	48 8d 0d e5 56 00 00 	lea    0x56e5(%rip),%rcx        # 407560 <gets_buf>
  401e7b:	48 63 f2             	movslq %edx,%rsi
  401e7e:	44 88 0c 31          	mov    %r9b,(%rcx,%rsi,1)
  401e82:	8d 72 01             	lea    0x1(%rdx),%esi
  401e85:	83 e7 0f             	and    $0xf,%edi
  401e88:	41 0f b6 3c 38       	movzbl (%r8,%rdi,1),%edi
  401e8d:	48 63 f6             	movslq %esi,%rsi
  401e90:	40 88 3c 31          	mov    %dil,(%rcx,%rsi,1)
  401e94:	83 c2 02             	add    $0x2,%edx
  401e97:	48 63 d2             	movslq %edx,%rdx
  401e9a:	c6 04 11 20          	movb   $0x20,(%rcx,%rdx,1)
  401e9e:	83 c0 01             	add    $0x1,%eax
  401ea1:	89 05 bd 62 00 00    	mov    %eax,0x62bd(%rip)        # 408164 <gets_cnt>
  401ea7:	c3                   	ret    

0000000000401ea8 <save_term>:
  401ea8:	8b 05 b6 62 00 00    	mov    0x62b6(%rip),%eax        # 408164 <gets_cnt>
  401eae:	8d 04 40             	lea    (%rax,%rax,2),%eax
  401eb1:	48 98                	cltq   
  401eb3:	48 8d 15 a6 56 00 00 	lea    0x56a6(%rip),%rdx        # 407560 <gets_buf>
  401eba:	c6 04 02 00          	movb   $0x0,(%rdx,%rax,1)
  401ebe:	c3                   	ret    

0000000000401ebf <check_fail>:
  401ebf:	48 83 ec 08          	sub    $0x8,%rsp
  401ec3:	0f be 15 9e 62 00 00 	movsbl 0x629e(%rip),%edx        # 408168 <target_prefix>
  401eca:	4c 8d 05 8f 56 00 00 	lea    0x568f(%rip),%r8        # 407560 <gets_buf>
  401ed1:	8b 0d 61 56 00 00    	mov    0x5661(%rip),%ecx        # 407538 <check_level>
  401ed7:	48 8d 35 2d 25 00 00 	lea    0x252d(%rip),%rsi        # 40440b <_IO_stdin_used+0x40b>
  401ede:	bf 01 00 00 00       	mov    $0x1,%edi
  401ee3:	b8 00 00 00 00       	mov    $0x0,%eax
  401ee8:	e8 c3 f2 ff ff       	call   4011b0 <__printf_chk@plt>
  401eed:	bf 01 00 00 00       	mov    $0x1,%edi
  401ef2:	e8 09 f3 ff ff       	call   401200 <exit@plt>

0000000000401ef7 <Gets>:
  401ef7:	41 54                	push   %r12
  401ef9:	55                   	push   %rbp
  401efa:	53                   	push   %rbx
  401efb:	49 89 fc             	mov    %rdi,%r12
  401efe:	c7 05 5c 62 00 00 00 	movl   $0x0,0x625c(%rip)        # 408164 <gets_cnt>
  401f05:	00 00 00 
  401f08:	48 89 fb             	mov    %rdi,%rbx
  401f0b:	eb 11                	jmp    401f1e <Gets+0x27>
  401f0d:	48 8d 6b 01          	lea    0x1(%rbx),%rbp
  401f11:	88 03                	mov    %al,(%rbx)
  401f13:	0f b6 f8             	movzbl %al,%edi
  401f16:	e8 35 ff ff ff       	call   401e50 <save_char>
  401f1b:	48 89 eb             	mov    %rbp,%rbx
  401f1e:	48 8b 3d 0b 56 00 00 	mov    0x560b(%rip),%rdi        # 407530 <infile>
  401f25:	e8 06 f3 ff ff       	call   401230 <getc@plt>
  401f2a:	83 f8 ff             	cmp    $0xffffffff,%eax
  401f2d:	74 05                	je     401f34 <Gets+0x3d>
  401f2f:	83 f8 0a             	cmp    $0xa,%eax
  401f32:	75 d9                	jne    401f0d <Gets+0x16>
  401f34:	c6 03 00             	movb   $0x0,(%rbx)
  401f37:	b8 00 00 00 00       	mov    $0x0,%eax
  401f3c:	e8 67 ff ff ff       	call   401ea8 <save_term>
  401f41:	4c 89 e0             	mov    %r12,%rax
  401f44:	5b                   	pop    %rbx
  401f45:	5d                   	pop    %rbp
  401f46:	41 5c                	pop    %r12
  401f48:	c3                   	ret    

0000000000401f49 <notify_server>:
  401f49:	55                   	push   %rbp
  401f4a:	53                   	push   %rbx
  401f4b:	48 81 ec 18 40 00 00 	sub    $0x4018,%rsp
  401f52:	64 48 8b 04 25 28 00 	mov    %fs:0x28,%rax
  401f59:	00 00 
  401f5b:	48 89 84 24 08 40 00 	mov    %rax,0x4008(%rsp)
  401f62:	00 
  401f63:	31 c0                	xor    %eax,%eax
  401f65:	83 3d dc 55 00 00 00 	cmpl   $0x0,0x55dc(%rip)        # 407548 <is_checker>
  401f6c:	0f 85 35 01 00 00    	jne    4020a7 <notify_server+0x15e>
  401f72:	89 fb                	mov    %edi,%ebx
  401f74:	81 3d e6 61 00 00 9c 	cmpl   $0x1f9c,0x61e6(%rip)        # 408164 <gets_cnt>
  401f7b:	1f 00 00 
  401f7e:	0f 8f be 00 00 00    	jg     402042 <notify_server+0xf9>
  401f84:	0f be 05 dd 61 00 00 	movsbl 0x61dd(%rip),%eax        # 408168 <target_prefix>
  401f8b:	83 3d 16 55 00 00 00 	cmpl   $0x0,0x5516(%rip)        # 4074a8 <notify>
  401f92:	0f 84 c5 00 00 00    	je     40205d <notify_server+0x114>
  401f98:	8b 15 a2 55 00 00    	mov    0x55a2(%rip),%edx        # 407540 <authkey>
  401f9e:	85 db                	test   %ebx,%ebx
  401fa0:	0f 84 c1 00 00 00    	je     402067 <notify_server+0x11e>
  401fa6:	48 8d 2d 74 24 00 00 	lea    0x2474(%rip),%rbp        # 404421 <_IO_stdin_used+0x421>
  401fad:	48 89 e7             	mov    %rsp,%rdi
  401fb0:	48 8d 0d a9 55 00 00 	lea    0x55a9(%rip),%rcx        # 407560 <gets_buf>
  401fb7:	51                   	push   %rcx
  401fb8:	56                   	push   %rsi
  401fb9:	50                   	push   %rax
  401fba:	52                   	push   %rdx
  401fbb:	49 89 e9             	mov    %rbp,%r9
  401fbe:	44 8b 05 8b 51 00 00 	mov    0x518b(%rip),%r8d        # 407150 <target_id>
  401fc5:	48 8d 0d 5f 24 00 00 	lea    0x245f(%rip),%rcx        # 40442b <_IO_stdin_used+0x42b>
  401fcc:	ba 00 20 00 00       	mov    $0x2000,%edx
  401fd1:	be 01 00 00 00       	mov    $0x1,%esi
  401fd6:	b8 00 00 00 00       	mov    $0x0,%eax
  401fdb:	e8 60 f2 ff ff       	call   401240 <__sprintf_chk@plt>
  401fe0:	48 83 c4 20          	add    $0x20,%rsp
  401fe4:	83 3d bd 54 00 00 00 	cmpl   $0x0,0x54bd(%rip)        # 4074a8 <notify>
  401feb:	0f 84 d7 00 00 00    	je     4020c8 <notify_server+0x17f>
  401ff1:	85 db                	test   %ebx,%ebx
  401ff3:	0f 84 a2 00 00 00    	je     40209b <notify_server+0x152>
  401ff9:	48 89 e1             	mov    %rsp,%rcx
  401ffc:	4c 8d 8c 24 00 20 00 	lea    0x2000(%rsp),%r9
  402003:	00 
  402004:	41 b8 00 00 00 00    	mov    $0x0,%r8d
  40200a:	48 8b 15 57 51 00 00 	mov    0x5157(%rip),%rdx        # 407168 <lab>
  402011:	48 8b 35 58 51 00 00 	mov    0x5158(%rip),%rsi        # 407170 <course>
  402018:	48 8b 3d 41 51 00 00 	mov    0x5141(%rip),%rdi        # 407160 <user_id>
  40201f:	e8 41 11 00 00       	call   403165 <driver_post>
  402024:	85 c0                	test   %eax,%eax
  402026:	78 4b                	js     402073 <notify_server+0x12a>
  402028:	48 8d 3d 41 25 00 00 	lea    0x2541(%rip),%rdi        # 404570 <_IO_stdin_used+0x570>
  40202f:	e8 4c f0 ff ff       	call   401080 <puts@plt>
  402034:	48 8d 3d 18 24 00 00 	lea    0x2418(%rip),%rdi        # 404453 <_IO_stdin_used+0x453>
  40203b:	e8 40 f0 ff ff       	call   401080 <puts@plt>
  402040:	eb 65                	jmp    4020a7 <notify_server+0x15e>
  402042:	48 8d 35 f7 24 00 00 	lea    0x24f7(%rip),%rsi        # 404540 <_IO_stdin_used+0x540>
  402049:	bf 01 00 00 00       	mov    $0x1,%edi
  40204e:	e8 5d f1 ff ff       	call   4011b0 <__printf_chk@plt>
  402053:	bf 01 00 00 00       	mov    $0x1,%edi
  402058:	e8 a3 f1 ff ff       	call   401200 <exit@plt>
  40205d:	ba ff ff ff ff       	mov    $0xffffffff,%edx
  402062:	e9 37 ff ff ff       	jmp    401f9e <notify_server+0x55>
  402067:	48 8d 2d b8 23 00 00 	lea    0x23b8(%rip),%rbp        # 404426 <_IO_stdin_used+0x426>
  40206e:	e9 3a ff ff ff       	jmp    401fad <notify_server+0x64>
  402073:	48 8d 94 24 00 20 00 	lea    0x2000(%rsp),%rdx
  40207a:	00 
  40207b:	48 8d 35 c5 23 00 00 	lea    0x23c5(%rip),%rsi        # 404447 <_IO_stdin_used+0x447>
  402082:	bf 01 00 00 00       	mov    $0x1,%edi
  402087:	b8 00 00 00 00       	mov    $0x0,%eax
  40208c:	e8 1f f1 ff ff       	call   4011b0 <__printf_chk@plt>
  402091:	bf 01 00 00 00       	mov    $0x1,%edi
  402096:	e8 65 f1 ff ff       	call   401200 <exit@plt>
  40209b:	48 8d 3d bb 23 00 00 	lea    0x23bb(%rip),%rdi        # 40445d <_IO_stdin_used+0x45d>
  4020a2:	e8 d9 ef ff ff       	call   401080 <puts@plt>
  4020a7:	48 8b 84 24 08 40 00 	mov    0x4008(%rsp),%rax
  4020ae:	00 
  4020af:	64 48 2b 04 25 28 00 	sub    %fs:0x28,%rax
  4020b6:	00 00 
  4020b8:	0f 85 98 00 00 00    	jne    402156 <notify_server+0x20d>
  4020be:	48 81 c4 18 40 00 00 	add    $0x4018,%rsp
  4020c5:	5b                   	pop    %rbx
  4020c6:	5d                   	pop    %rbp
  4020c7:	c3                   	ret    
  4020c8:	48 89 ea             	mov    %rbp,%rdx
  4020cb:	48 8d 35 d6 24 00 00 	lea    0x24d6(%rip),%rsi        # 4045a8 <_IO_stdin_used+0x5a8>
  4020d2:	bf 01 00 00 00       	mov    $0x1,%edi
  4020d7:	b8 00 00 00 00       	mov    $0x0,%eax
  4020dc:	e8 cf f0 ff ff       	call   4011b0 <__printf_chk@plt>
  4020e1:	48 8b 15 78 50 00 00 	mov    0x5078(%rip),%rdx        # 407160 <user_id>
  4020e8:	48 8d 35 75 23 00 00 	lea    0x2375(%rip),%rsi        # 404464 <_IO_stdin_used+0x464>
  4020ef:	bf 01 00 00 00       	mov    $0x1,%edi
  4020f4:	b8 00 00 00 00       	mov    $0x0,%eax
  4020f9:	e8 b2 f0 ff ff       	call   4011b0 <__printf_chk@plt>
  4020fe:	48 8b 15 6b 50 00 00 	mov    0x506b(%rip),%rdx        # 407170 <course>
  402105:	48 8d 35 65 23 00 00 	lea    0x2365(%rip),%rsi        # 404471 <_IO_stdin_used+0x471>
  40210c:	bf 01 00 00 00       	mov    $0x1,%edi
  402111:	b8 00 00 00 00       	mov    $0x0,%eax
  402116:	e8 95 f0 ff ff       	call   4011b0 <__printf_chk@plt>
  40211b:	48 8b 15 46 50 00 00 	mov    0x5046(%rip),%rdx        # 407168 <lab>
  402122:	48 8d 35 54 23 00 00 	lea    0x2354(%rip),%rsi        # 40447d <_IO_stdin_used+0x47d>
  402129:	bf 01 00 00 00       	mov    $0x1,%edi
  40212e:	b8 00 00 00 00       	mov    $0x0,%eax
  402133:	e8 78 f0 ff ff       	call   4011b0 <__printf_chk@plt>
  402138:	48 89 e2             	mov    %rsp,%rdx
  40213b:	48 8d 35 44 23 00 00 	lea    0x2344(%rip),%rsi        # 404486 <_IO_stdin_used+0x486>
  402142:	bf 01 00 00 00       	mov    $0x1,%edi
  402147:	b8 00 00 00 00       	mov    $0x0,%eax
  40214c:	e8 5f f0 ff ff       	call   4011b0 <__printf_chk@plt>
  402151:	e9 51 ff ff ff       	jmp    4020a7 <notify_server+0x15e>
  402156:	e8 55 ef ff ff       	call   4010b0 <__stack_chk_fail@plt>

000000000040215b <validate>:
  40215b:	53                   	push   %rbx
  40215c:	89 fb                	mov    %edi,%ebx
  40215e:	83 3d e3 53 00 00 00 	cmpl   $0x0,0x53e3(%rip)        # 407548 <is_checker>
  402165:	74 72                	je     4021d9 <validate+0x7e>
  402167:	39 3d cf 53 00 00    	cmp    %edi,0x53cf(%rip)        # 40753c <vlevel>
  40216d:	75 32                	jne    4021a1 <validate+0x46>
  40216f:	8b 15 c3 53 00 00    	mov    0x53c3(%rip),%edx        # 407538 <check_level>
  402175:	39 fa                	cmp    %edi,%edx
  402177:	75 3e                	jne    4021b7 <validate+0x5c>
  402179:	0f be 15 e8 5f 00 00 	movsbl 0x5fe8(%rip),%edx        # 408168 <target_prefix>
  402180:	4c 8d 05 d9 53 00 00 	lea    0x53d9(%rip),%r8        # 407560 <gets_buf>
  402187:	89 f9                	mov    %edi,%ecx
  402189:	48 8d 35 20 23 00 00 	lea    0x2320(%rip),%rsi        # 4044b0 <_IO_stdin_used+0x4b0>
  402190:	bf 01 00 00 00       	mov    $0x1,%edi
  402195:	b8 00 00 00 00       	mov    $0x0,%eax
  40219a:	e8 11 f0 ff ff       	call   4011b0 <__printf_chk@plt>
  40219f:	5b                   	pop    %rbx
  4021a0:	c3                   	ret    
  4021a1:	48 8d 3d ea 22 00 00 	lea    0x22ea(%rip),%rdi        # 404492 <_IO_stdin_used+0x492>
  4021a8:	e8 d3 ee ff ff       	call   401080 <puts@plt>
  4021ad:	b8 00 00 00 00       	mov    $0x0,%eax
  4021b2:	e8 08 fd ff ff       	call   401ebf <check_fail>
  4021b7:	89 f9                	mov    %edi,%ecx
  4021b9:	48 8d 35 10 24 00 00 	lea    0x2410(%rip),%rsi        # 4045d0 <_IO_stdin_used+0x5d0>
  4021c0:	bf 01 00 00 00       	mov    $0x1,%edi
  4021c5:	b8 00 00 00 00       	mov    $0x0,%eax
  4021ca:	e8 e1 ef ff ff       	call   4011b0 <__printf_chk@plt>
  4021cf:	b8 00 00 00 00       	mov    $0x0,%eax
  4021d4:	e8 e6 fc ff ff       	call   401ebf <check_fail>
  4021d9:	39 3d 5d 53 00 00    	cmp    %edi,0x535d(%rip)        # 40753c <vlevel>
  4021df:	74 1a                	je     4021fb <validate+0xa0>
  4021e1:	48 8d 3d aa 22 00 00 	lea    0x22aa(%rip),%rdi        # 404492 <_IO_stdin_used+0x492>
  4021e8:	e8 93 ee ff ff       	call   401080 <puts@plt>
  4021ed:	89 de                	mov    %ebx,%esi
  4021ef:	bf 00 00 00 00       	mov    $0x0,%edi
  4021f4:	e8 50 fd ff ff       	call   401f49 <notify_server>
  4021f9:	eb a4                	jmp    40219f <validate+0x44>
  4021fb:	0f be 0d 66 5f 00 00 	movsbl 0x5f66(%rip),%ecx        # 408168 <target_prefix>
  402202:	89 fa                	mov    %edi,%edx
  402204:	48 8d 35 ed 23 00 00 	lea    0x23ed(%rip),%rsi        # 4045f8 <_IO_stdin_used+0x5f8>
  40220b:	bf 01 00 00 00       	mov    $0x1,%edi
  402210:	b8 00 00 00 00       	mov    $0x0,%eax
  402215:	e8 96 ef ff ff       	call   4011b0 <__printf_chk@plt>
  40221a:	89 de                	mov    %ebx,%esi
  40221c:	bf 01 00 00 00       	mov    $0x1,%edi
  402221:	e8 23 fd ff ff       	call   401f49 <notify_server>
  402226:	e9 74 ff ff ff       	jmp    40219f <validate+0x44>

000000000040222b <fail>:
  40222b:	48 83 ec 08          	sub    $0x8,%rsp
  40222f:	83 3d 12 53 00 00 00 	cmpl   $0x0,0x5312(%rip)        # 407548 <is_checker>
  402236:	75 11                	jne    402249 <fail+0x1e>
  402238:	89 fe                	mov    %edi,%esi
  40223a:	bf 00 00 00 00       	mov    $0x0,%edi
  40223f:	e8 05 fd ff ff       	call   401f49 <notify_server>
  402244:	48 83 c4 08          	add    $0x8,%rsp
  402248:	c3                   	ret    
  402249:	b8 00 00 00 00       	mov    $0x0,%eax
  40224e:	e8 6c fc ff ff       	call   401ebf <check_fail>

0000000000402253 <bushandler>:
  402253:	48 83 ec 08          	sub    $0x8,%rsp
  402257:	83 3d ea 52 00 00 00 	cmpl   $0x0,0x52ea(%rip)        # 407548 <is_checker>
  40225e:	74 16                	je     402276 <bushandler+0x23>
  402260:	48 8d 3d 5e 22 00 00 	lea    0x225e(%rip),%rdi        # 4044c5 <_IO_stdin_used+0x4c5>
  402267:	e8 14 ee ff ff       	call   401080 <puts@plt>
  40226c:	b8 00 00 00 00       	mov    $0x0,%eax
  402271:	e8 49 fc ff ff       	call   401ebf <check_fail>
  402276:	48 8d 3d b3 23 00 00 	lea    0x23b3(%rip),%rdi        # 404630 <_IO_stdin_used+0x630>
  40227d:	e8 fe ed ff ff       	call   401080 <puts@plt>
  402282:	48 8d 3d 46 22 00 00 	lea    0x2246(%rip),%rdi        # 4044cf <_IO_stdin_used+0x4cf>
  402289:	e8 f2 ed ff ff       	call   401080 <puts@plt>
  40228e:	be 00 00 00 00       	mov    $0x0,%esi
  402293:	bf 00 00 00 00       	mov    $0x0,%edi
  402298:	e8 ac fc ff ff       	call   401f49 <notify_server>
  40229d:	bf 01 00 00 00       	mov    $0x1,%edi
  4022a2:	e8 59 ef ff ff       	call   401200 <exit@plt>

00000000004022a7 <seghandler>:
  4022a7:	48 83 ec 08          	sub    $0x8,%rsp
  4022ab:	83 3d 96 52 00 00 00 	cmpl   $0x0,0x5296(%rip)        # 407548 <is_checker>
  4022b2:	74 16                	je     4022ca <seghandler+0x23>
  4022b4:	48 8d 3d 2a 22 00 00 	lea    0x222a(%rip),%rdi        # 4044e5 <_IO_stdin_used+0x4e5>
  4022bb:	e8 c0 ed ff ff       	call   401080 <puts@plt>
  4022c0:	b8 00 00 00 00       	mov    $0x0,%eax
  4022c5:	e8 f5 fb ff ff       	call   401ebf <check_fail>
  4022ca:	48 8d 3d 7f 23 00 00 	lea    0x237f(%rip),%rdi        # 404650 <_IO_stdin_used+0x650>
  4022d1:	e8 aa ed ff ff       	call   401080 <puts@plt>
  4022d6:	48 8d 3d f2 21 00 00 	lea    0x21f2(%rip),%rdi        # 4044cf <_IO_stdin_used+0x4cf>
  4022dd:	e8 9e ed ff ff       	call   401080 <puts@plt>
  4022e2:	be 00 00 00 00       	mov    $0x0,%esi
  4022e7:	bf 00 00 00 00       	mov    $0x0,%edi
  4022ec:	e8 58 fc ff ff       	call   401f49 <notify_server>
  4022f1:	bf 01 00 00 00       	mov    $0x1,%edi
  4022f6:	e8 05 ef ff ff       	call   401200 <exit@plt>

00000000004022fb <illegalhandler>:
  4022fb:	48 83 ec 08          	sub    $0x8,%rsp
  4022ff:	83 3d 42 52 00 00 00 	cmpl   $0x0,0x5242(%rip)        # 407548 <is_checker>
  402306:	74 16                	je     40231e <illegalhandler+0x23>
  402308:	48 8d 3d e9 21 00 00 	lea    0x21e9(%rip),%rdi        # 4044f8 <_IO_stdin_used+0x4f8>
  40230f:	e8 6c ed ff ff       	call   401080 <puts@plt>
  402314:	b8 00 00 00 00       	mov    $0x0,%eax
  402319:	e8 a1 fb ff ff       	call   401ebf <check_fail>
  40231e:	48 8d 3d 53 23 00 00 	lea    0x2353(%rip),%rdi        # 404678 <_IO_stdin_used+0x678>
  402325:	e8 56 ed ff ff       	call   401080 <puts@plt>
  40232a:	48 8d 3d 9e 21 00 00 	lea    0x219e(%rip),%rdi        # 4044cf <_IO_stdin_used+0x4cf>
  402331:	e8 4a ed ff ff       	call   401080 <puts@plt>
  402336:	be 00 00 00 00       	mov    $0x0,%esi
  40233b:	bf 00 00 00 00       	mov    $0x0,%edi
  402340:	e8 04 fc ff ff       	call   401f49 <notify_server>
  402345:	bf 01 00 00 00       	mov    $0x1,%edi
  40234a:	e8 b1 ee ff ff       	call   401200 <exit@plt>

000000000040234f <sigalrmhandler>:
  40234f:	48 83 ec 08          	sub    $0x8,%rsp
  402353:	83 3d ee 51 00 00 00 	cmpl   $0x0,0x51ee(%rip)        # 407548 <is_checker>
  40235a:	74 16                	je     402372 <sigalrmhandler+0x23>
  40235c:	48 8d 3d a9 21 00 00 	lea    0x21a9(%rip),%rdi        # 40450c <_IO_stdin_used+0x50c>
  402363:	e8 18 ed ff ff       	call   401080 <puts@plt>
  402368:	b8 00 00 00 00       	mov    $0x0,%eax
  40236d:	e8 4d fb ff ff       	call   401ebf <check_fail>
  402372:	ba 05 00 00 00       	mov    $0x5,%edx
  402377:	48 8d 35 2a 23 00 00 	lea    0x232a(%rip),%rsi        # 4046a8 <_IO_stdin_used+0x6a8>
  40237e:	bf 01 00 00 00       	mov    $0x1,%edi
  402383:	b8 00 00 00 00       	mov    $0x0,%eax
  402388:	e8 23 ee ff ff       	call   4011b0 <__printf_chk@plt>
  40238d:	be 00 00 00 00       	mov    $0x0,%esi
  402392:	bf 00 00 00 00       	mov    $0x0,%edi
  402397:	e8 ad fb ff ff       	call   401f49 <notify_server>
  40239c:	bf 01 00 00 00       	mov    $0x1,%edi
  4023a1:	e8 5a ee ff ff       	call   401200 <exit@plt>

00000000004023a6 <launch>:
  4023a6:	55                   	push   %rbp
  4023a7:	48 89 e5             	mov    %rsp,%rbp
  4023aa:	48 83 ec 10          	sub    $0x10,%rsp
  4023ae:	48 89 fa             	mov    %rdi,%rdx
  4023b1:	64 48 8b 04 25 28 00 	mov    %fs:0x28,%rax
  4023b8:	00 00 
  4023ba:	48 89 45 f8          	mov    %rax,-0x8(%rbp)
  4023be:	31 c0                	xor    %eax,%eax
  4023c0:	48 8d 47 17          	lea    0x17(%rdi),%rax
  4023c4:	48 83 e0 f0          	and    $0xfffffffffffffff0,%rax
  4023c8:	48 29 c4             	sub    %rax,%rsp
  4023cb:	48 8d 7c 24 0f       	lea    0xf(%rsp),%rdi
  4023d0:	48 83 e7 f0          	and    $0xfffffffffffffff0,%rdi
  4023d4:	be f4 00 00 00       	mov    $0xf4,%esi
  4023d9:	e8 f2 ec ff ff       	call   4010d0 <memset@plt>
  4023de:	48 8b 05 db 50 00 00 	mov    0x50db(%rip),%rax        # 4074c0 <stdin@GLIBC_2.2.5>
  4023e5:	48 39 05 44 51 00 00 	cmp    %rax,0x5144(%rip)        # 407530 <infile>
  4023ec:	74 3a                	je     402428 <launch+0x82>
  4023ee:	c7 05 44 51 00 00 00 	movl   $0x0,0x5144(%rip)        # 40753c <vlevel>
  4023f5:	00 00 00 
  4023f8:	b8 00 00 00 00       	mov    $0x0,%eax
  4023fd:	e8 23 fa ff ff       	call   401e25 <test>
  402402:	83 3d 3f 51 00 00 00 	cmpl   $0x0,0x513f(%rip)        # 407548 <is_checker>
  402409:	75 35                	jne    402440 <launch+0x9a>
  40240b:	48 8d 3d 1a 21 00 00 	lea    0x211a(%rip),%rdi        # 40452c <_IO_stdin_used+0x52c>
  402412:	e8 69 ec ff ff       	call   401080 <puts@plt>
  402417:	48 8b 45 f8          	mov    -0x8(%rbp),%rax
  40241b:	64 48 2b 04 25 28 00 	sub    %fs:0x28,%rax
  402422:	00 00 
  402424:	75 30                	jne    402456 <launch+0xb0>
  402426:	c9                   	leave  
  402427:	c3                   	ret    
  402428:	48 8d 35 e5 20 00 00 	lea    0x20e5(%rip),%rsi        # 404514 <_IO_stdin_used+0x514>
  40242f:	bf 01 00 00 00       	mov    $0x1,%edi
  402434:	b8 00 00 00 00       	mov    $0x0,%eax
  402439:	e8 72 ed ff ff       	call   4011b0 <__printf_chk@plt>
  40243e:	eb ae                	jmp    4023ee <launch+0x48>
  402440:	48 8d 3d da 20 00 00 	lea    0x20da(%rip),%rdi        # 404521 <_IO_stdin_used+0x521>
  402447:	e8 34 ec ff ff       	call   401080 <puts@plt>
  40244c:	b8 00 00 00 00       	mov    $0x0,%eax
  402451:	e8 69 fa ff ff       	call   401ebf <check_fail>
  402456:	e8 55 ec ff ff       	call   4010b0 <__stack_chk_fail@plt>

000000000040245b <stable_launch>:
  40245b:	53                   	push   %rbx
  40245c:	48 89 3d c5 50 00 00 	mov    %rdi,0x50c5(%rip)        # 407528 <global_offset>
  402463:	41 b9 00 00 00 00    	mov    $0x0,%r9d
  402469:	41 b8 00 00 00 00    	mov    $0x0,%r8d
  40246f:	b9 32 01 00 00       	mov    $0x132,%ecx
  402474:	ba 07 00 00 00       	mov    $0x7,%edx
  402479:	be 00 00 10 00       	mov    $0x100000,%esi
  40247e:	bf 00 60 58 55       	mov    $0x55586000,%edi
  402483:	e8 38 ec ff ff       	call   4010c0 <mmap@plt>
  402488:	48 89 c3             	mov    %rax,%rbx
  40248b:	48 3d 00 60 58 55    	cmp    $0x55586000,%rax
  402491:	75 43                	jne    4024d6 <stable_launch+0x7b>
  402493:	48 8d 90 f8 ff 0f 00 	lea    0xffff8(%rax),%rdx
  40249a:	48 89 15 cf 5c 00 00 	mov    %rdx,0x5ccf(%rip)        # 408170 <stack_top>
  4024a1:	48 89 e0             	mov    %rsp,%rax
  4024a4:	48 89 d4             	mov    %rdx,%rsp
  4024a7:	48 89 c2             	mov    %rax,%rdx
  4024aa:	48 89 15 6f 50 00 00 	mov    %rdx,0x506f(%rip)        # 407520 <global_save_stack>
  4024b1:	48 8b 3d 70 50 00 00 	mov    0x5070(%rip),%rdi        # 407528 <global_offset>
  4024b8:	e8 e9 fe ff ff       	call   4023a6 <launch>
  4024bd:	48 8b 05 5c 50 00 00 	mov    0x505c(%rip),%rax        # 407520 <global_save_stack>
  4024c4:	48 89 c4             	mov    %rax,%rsp
  4024c7:	be 00 00 10 00       	mov    $0x100000,%esi
  4024cc:	48 89 df             	mov    %rbx,%rdi
  4024cf:	e8 cc ec ff ff       	call   4011a0 <munmap@plt>
  4024d4:	5b                   	pop    %rbx
  4024d5:	c3                   	ret    
  4024d6:	be 00 00 10 00       	mov    $0x100000,%esi
  4024db:	48 89 c7             	mov    %rax,%rdi
  4024de:	e8 bd ec ff ff       	call   4011a0 <munmap@plt>
  4024e3:	b9 00 60 58 55       	mov    $0x55586000,%ecx
  4024e8:	48 8d 15 f1 21 00 00 	lea    0x21f1(%rip),%rdx        # 4046e0 <_IO_stdin_used+0x6e0>
  4024ef:	be 01 00 00 00       	mov    $0x1,%esi
  4024f4:	48 8b 3d 05 50 00 00 	mov    0x5005(%rip),%rdi        # 407500 <stderr@GLIBC_2.2.5>
  4024fb:	b8 00 00 00 00       	mov    $0x0,%eax
  402500:	e8 1b ed ff ff       	call   401220 <__fprintf_chk@plt>
  402505:	bf 01 00 00 00       	mov    $0x1,%edi
  40250a:	e8 f1 ec ff ff       	call   401200 <exit@plt>

000000000040250f <rio_readinitb>:
  40250f:	89 37                	mov    %esi,(%rdi)
  402511:	c7 47 04 00 00 00 00 	movl   $0x0,0x4(%rdi)
  402518:	48 8d 47 10          	lea    0x10(%rdi),%rax
  40251c:	48 89 47 08          	mov    %rax,0x8(%rdi)
  402520:	c3                   	ret    

0000000000402521 <sigalrm_handler>:
  402521:	48 83 ec 08          	sub    $0x8,%rsp
  402525:	b9 00 00 00 00       	mov    $0x0,%ecx
  40252a:	48 8d 15 ef 21 00 00 	lea    0x21ef(%rip),%rdx        # 404720 <trans_char+0x10>
  402531:	be 01 00 00 00       	mov    $0x1,%esi
  402536:	48 8b 3d c3 4f 00 00 	mov    0x4fc3(%rip),%rdi        # 407500 <stderr@GLIBC_2.2.5>
  40253d:	b8 00 00 00 00       	mov    $0x0,%eax
  402542:	e8 d9 ec ff ff       	call   401220 <__fprintf_chk@plt>
  402547:	bf 01 00 00 00       	mov    $0x1,%edi
  40254c:	e8 af ec ff ff       	call   401200 <exit@plt>

0000000000402551 <rio_writen>:
  402551:	41 55                	push   %r13
  402553:	41 54                	push   %r12
  402555:	55                   	push   %rbp
  402556:	53                   	push   %rbx
  402557:	48 83 ec 08          	sub    $0x8,%rsp
  40255b:	41 89 fc             	mov    %edi,%r12d
  40255e:	48 89 f5             	mov    %rsi,%rbp
  402561:	49 89 d5             	mov    %rdx,%r13
  402564:	48 89 d3             	mov    %rdx,%rbx
  402567:	eb 06                	jmp    40256f <rio_writen+0x1e>
  402569:	48 29 c3             	sub    %rax,%rbx
  40256c:	48 01 c5             	add    %rax,%rbp
  40256f:	48 85 db             	test   %rbx,%rbx
  402572:	74 24                	je     402598 <rio_writen+0x47>
  402574:	48 89 da             	mov    %rbx,%rdx
  402577:	48 89 ee             	mov    %rbp,%rsi
  40257a:	44 89 e7             	mov    %r12d,%edi
  40257d:	e8 0e eb ff ff       	call   401090 <write@plt>
  402582:	48 85 c0             	test   %rax,%rax
  402585:	7f e2                	jg     402569 <rio_writen+0x18>
  402587:	e8 b4 ea ff ff       	call   401040 <__errno_location@plt>
  40258c:	83 38 04             	cmpl   $0x4,(%rax)
  40258f:	75 15                	jne    4025a6 <rio_writen+0x55>
  402591:	b8 00 00 00 00       	mov    $0x0,%eax
  402596:	eb d1                	jmp    402569 <rio_writen+0x18>
  402598:	4c 89 e8             	mov    %r13,%rax
  40259b:	48 83 c4 08          	add    $0x8,%rsp
  40259f:	5b                   	pop    %rbx
  4025a0:	5d                   	pop    %rbp
  4025a1:	41 5c                	pop    %r12
  4025a3:	41 5d                	pop    %r13
  4025a5:	c3                   	ret    
  4025a6:	48 c7 c0 ff ff ff ff 	mov    $0xffffffffffffffff,%rax
  4025ad:	eb ec                	jmp    40259b <rio_writen+0x4a>

00000000004025af <rio_read>:
  4025af:	41 55                	push   %r13
  4025b1:	41 54                	push   %r12
  4025b3:	55                   	push   %rbp
  4025b4:	53                   	push   %rbx
  4025b5:	48 83 ec 08          	sub    $0x8,%rsp
  4025b9:	48 89 fb             	mov    %rdi,%rbx
  4025bc:	49 89 f5             	mov    %rsi,%r13
  4025bf:	49 89 d4             	mov    %rdx,%r12
  4025c2:	eb 0a                	jmp    4025ce <rio_read+0x1f>
  4025c4:	e8 77 ea ff ff       	call   401040 <__errno_location@plt>
  4025c9:	83 38 04             	cmpl   $0x4,(%rax)
  4025cc:	75 5a                	jne    402628 <rio_read+0x79>
  4025ce:	8b 6b 04             	mov    0x4(%rbx),%ebp
  4025d1:	85 ed                	test   %ebp,%ebp
  4025d3:	7f 22                	jg     4025f7 <rio_read+0x48>
  4025d5:	48 8d 6b 10          	lea    0x10(%rbx),%rbp
  4025d9:	8b 3b                	mov    (%rbx),%edi
  4025db:	ba 00 20 00 00       	mov    $0x2000,%edx
  4025e0:	48 89 ee             	mov    %rbp,%rsi
  4025e3:	e8 18 eb ff ff       	call   401100 <read@plt>
  4025e8:	89 43 04             	mov    %eax,0x4(%rbx)
  4025eb:	85 c0                	test   %eax,%eax
  4025ed:	78 d5                	js     4025c4 <rio_read+0x15>
  4025ef:	74 40                	je     402631 <rio_read+0x82>
  4025f1:	48 89 6b 08          	mov    %rbp,0x8(%rbx)
  4025f5:	eb d7                	jmp    4025ce <rio_read+0x1f>
  4025f7:	89 e8                	mov    %ebp,%eax
  4025f9:	4c 39 e0             	cmp    %r12,%rax
  4025fc:	72 03                	jb     402601 <rio_read+0x52>
  4025fe:	44 89 e5             	mov    %r12d,%ebp
  402601:	4c 63 e5             	movslq %ebp,%r12
  402604:	48 8b 73 08          	mov    0x8(%rbx),%rsi
  402608:	4c 89 e2             	mov    %r12,%rdx
  40260b:	4c 89 ef             	mov    %r13,%rdi
  40260e:	e8 4d eb ff ff       	call   401160 <memcpy@plt>
  402613:	4c 01 63 08          	add    %r12,0x8(%rbx)
  402617:	29 6b 04             	sub    %ebp,0x4(%rbx)
  40261a:	4c 89 e0             	mov    %r12,%rax
  40261d:	48 83 c4 08          	add    $0x8,%rsp
  402621:	5b                   	pop    %rbx
  402622:	5d                   	pop    %rbp
  402623:	41 5c                	pop    %r12
  402625:	41 5d                	pop    %r13
  402627:	c3                   	ret    
  402628:	48 c7 c0 ff ff ff ff 	mov    $0xffffffffffffffff,%rax
  40262f:	eb ec                	jmp    40261d <rio_read+0x6e>
  402631:	b8 00 00 00 00       	mov    $0x0,%eax
  402636:	eb e5                	jmp    40261d <rio_read+0x6e>

0000000000402638 <rio_readlineb>:
  402638:	41 55                	push   %r13
  40263a:	41 54                	push   %r12
  40263c:	55                   	push   %rbp
  40263d:	53                   	push   %rbx
  40263e:	48 83 ec 18          	sub    $0x18,%rsp
  402642:	49 89 fd             	mov    %rdi,%r13
  402645:	48 89 f5             	mov    %rsi,%rbp
  402648:	49 89 d4             	mov    %rdx,%r12
  40264b:	64 48 8b 04 25 28 00 	mov    %fs:0x28,%rax
  402652:	00 00 
  402654:	48 89 44 24 08       	mov    %rax,0x8(%rsp)
  402659:	31 c0                	xor    %eax,%eax
  40265b:	bb 01 00 00 00       	mov    $0x1,%ebx
  402660:	eb 18                	jmp    40267a <rio_readlineb+0x42>
  402662:	85 c0                	test   %eax,%eax
  402664:	75 65                	jne    4026cb <rio_readlineb+0x93>
  402666:	48 83 fb 01          	cmp    $0x1,%rbx
  40266a:	75 3d                	jne    4026a9 <rio_readlineb+0x71>
  40266c:	b8 00 00 00 00       	mov    $0x0,%eax
  402671:	eb 3d                	jmp    4026b0 <rio_readlineb+0x78>
  402673:	48 83 c3 01          	add    $0x1,%rbx
  402677:	48 89 d5             	mov    %rdx,%rbp
  40267a:	4c 39 e3             	cmp    %r12,%rbx
  40267d:	73 2a                	jae    4026a9 <rio_readlineb+0x71>
  40267f:	48 8d 74 24 07       	lea    0x7(%rsp),%rsi
  402684:	ba 01 00 00 00       	mov    $0x1,%edx
  402689:	4c 89 ef             	mov    %r13,%rdi
  40268c:	e8 1e ff ff ff       	call   4025af <rio_read>
  402691:	83 f8 01             	cmp    $0x1,%eax
  402694:	75 cc                	jne    402662 <rio_readlineb+0x2a>
  402696:	48 8d 55 01          	lea    0x1(%rbp),%rdx
  40269a:	0f b6 44 24 07       	movzbl 0x7(%rsp),%eax
  40269f:	88 45 00             	mov    %al,0x0(%rbp)
  4026a2:	3c 0a                	cmp    $0xa,%al
  4026a4:	75 cd                	jne    402673 <rio_readlineb+0x3b>
  4026a6:	48 89 d5             	mov    %rdx,%rbp
  4026a9:	c6 45 00 00          	movb   $0x0,0x0(%rbp)
  4026ad:	48 89 d8             	mov    %rbx,%rax
  4026b0:	48 8b 54 24 08       	mov    0x8(%rsp),%rdx
  4026b5:	64 48 2b 14 25 28 00 	sub    %fs:0x28,%rdx
  4026bc:	00 00 
  4026be:	75 14                	jne    4026d4 <rio_readlineb+0x9c>
  4026c0:	48 83 c4 18          	add    $0x18,%rsp
  4026c4:	5b                   	pop    %rbx
  4026c5:	5d                   	pop    %rbp
  4026c6:	41 5c                	pop    %r12
  4026c8:	41 5d                	pop    %r13
  4026ca:	c3                   	ret    
  4026cb:	48 c7 c0 ff ff ff ff 	mov    $0xffffffffffffffff,%rax
  4026d2:	eb dc                	jmp    4026b0 <rio_readlineb+0x78>
  4026d4:	e8 d7 e9 ff ff       	call   4010b0 <__stack_chk_fail@plt>

00000000004026d9 <urlencode>:
  4026d9:	41 54                	push   %r12
  4026db:	55                   	push   %rbp
  4026dc:	53                   	push   %rbx
  4026dd:	48 83 ec 10          	sub    $0x10,%rsp
  4026e1:	48 89 fb             	mov    %rdi,%rbx
  4026e4:	48 89 f5             	mov    %rsi,%rbp
  4026e7:	64 48 8b 04 25 28 00 	mov    %fs:0x28,%rax
  4026ee:	00 00 
  4026f0:	48 89 44 24 08       	mov    %rax,0x8(%rsp)
  4026f5:	31 c0                	xor    %eax,%eax
  4026f7:	e8 a4 e9 ff ff       	call   4010a0 <strlen@plt>
  4026fc:	eb 0f                	jmp    40270d <urlencode+0x34>
  4026fe:	44 88 45 00          	mov    %r8b,0x0(%rbp)
  402702:	48 8d 6d 01          	lea    0x1(%rbp),%rbp
  402706:	48 83 c3 01          	add    $0x1,%rbx
  40270a:	44 89 e0             	mov    %r12d,%eax
  40270d:	44 8d 60 ff          	lea    -0x1(%rax),%r12d
  402711:	85 c0                	test   %eax,%eax
  402713:	0f 84 a8 00 00 00    	je     4027c1 <urlencode+0xe8>
  402719:	44 0f b6 03          	movzbl (%rbx),%r8d
  40271d:	41 80 f8 2a          	cmp    $0x2a,%r8b
  402721:	0f 94 c0             	sete   %al
  402724:	41 80 f8 2d          	cmp    $0x2d,%r8b
  402728:	0f 94 c2             	sete   %dl
  40272b:	08 d0                	or     %dl,%al
  40272d:	75 cf                	jne    4026fe <urlencode+0x25>
  40272f:	41 80 f8 2e          	cmp    $0x2e,%r8b
  402733:	74 c9                	je     4026fe <urlencode+0x25>
  402735:	41 80 f8 5f          	cmp    $0x5f,%r8b
  402739:	74 c3                	je     4026fe <urlencode+0x25>
  40273b:	41 8d 40 d0          	lea    -0x30(%r8),%eax
  40273f:	3c 09                	cmp    $0x9,%al
  402741:	76 bb                	jbe    4026fe <urlencode+0x25>
  402743:	41 8d 40 bf          	lea    -0x41(%r8),%eax
  402747:	3c 19                	cmp    $0x19,%al
  402749:	76 b3                	jbe    4026fe <urlencode+0x25>
  40274b:	41 8d 40 9f          	lea    -0x61(%r8),%eax
  40274f:	3c 19                	cmp    $0x19,%al
  402751:	76 ab                	jbe    4026fe <urlencode+0x25>
  402753:	41 80 f8 20          	cmp    $0x20,%r8b
  402757:	74 56                	je     4027af <urlencode+0xd6>
  402759:	41 8d 40 e0          	lea    -0x20(%r8),%eax
  40275d:	3c 5f                	cmp    $0x5f,%al
  40275f:	0f 96 c0             	setbe  %al
  402762:	41 80 f8 09          	cmp    $0x9,%r8b
  402766:	0f 94 c2             	sete   %dl
  402769:	08 d0                	or     %dl,%al
  40276b:	74 4f                	je     4027bc <urlencode+0xe3>
  40276d:	48 89 e7             	mov    %rsp,%rdi
  402770:	45 0f b6 c0          	movzbl %r8b,%r8d
  402774:	48 8d 0d 3a 20 00 00 	lea    0x203a(%rip),%rcx        # 4047b5 <trans_char+0xa5>
  40277b:	ba 08 00 00 00       	mov    $0x8,%edx
  402780:	be 01 00 00 00       	mov    $0x1,%esi
  402785:	b8 00 00 00 00       	mov    $0x0,%eax
  40278a:	e8 b1 ea ff ff       	call   401240 <__sprintf_chk@plt>
  40278f:	0f b6 04 24          	movzbl (%rsp),%eax
  402793:	88 45 00             	mov    %al,0x0(%rbp)
  402796:	0f b6 44 24 01       	movzbl 0x1(%rsp),%eax
  40279b:	88 45 01             	mov    %al,0x1(%rbp)
  40279e:	0f b6 44 24 02       	movzbl 0x2(%rsp),%eax
  4027a3:	88 45 02             	mov    %al,0x2(%rbp)
  4027a6:	48 8d 6d 03          	lea    0x3(%rbp),%rbp
  4027aa:	e9 57 ff ff ff       	jmp    402706 <urlencode+0x2d>
  4027af:	c6 45 00 2b          	movb   $0x2b,0x0(%rbp)
  4027b3:	48 8d 6d 01          	lea    0x1(%rbp),%rbp
  4027b7:	e9 4a ff ff ff       	jmp    402706 <urlencode+0x2d>
  4027bc:	b8 ff ff ff ff       	mov    $0xffffffff,%eax
  4027c1:	48 8b 54 24 08       	mov    0x8(%rsp),%rdx
  4027c6:	64 48 2b 14 25 28 00 	sub    %fs:0x28,%rdx
  4027cd:	00 00 
  4027cf:	75 09                	jne    4027da <urlencode+0x101>
  4027d1:	48 83 c4 10          	add    $0x10,%rsp
  4027d5:	5b                   	pop    %rbx
  4027d6:	5d                   	pop    %rbp
  4027d7:	41 5c                	pop    %r12
  4027d9:	c3                   	ret    
  4027da:	e8 d1 e8 ff ff       	call   4010b0 <__stack_chk_fail@plt>

00000000004027df <submitr>:
  4027df:	41 57                	push   %r15
  4027e1:	41 56                	push   %r14
  4027e3:	41 55                	push   %r13
  4027e5:	41 54                	push   %r12
  4027e7:	55                   	push   %rbp
  4027e8:	53                   	push   %rbx
  4027e9:	48 81 ec 68 c0 00 00 	sub    $0xc068,%rsp
  4027f0:	49 89 fc             	mov    %rdi,%r12
  4027f3:	89 74 24 10          	mov    %esi,0x10(%rsp)
  4027f7:	49 89 d6             	mov    %rdx,%r14
  4027fa:	48 89 4c 24 08       	mov    %rcx,0x8(%rsp)
  4027ff:	4c 89 44 24 18       	mov    %r8,0x18(%rsp)
  402804:	4d 89 cd             	mov    %r9,%r13
  402807:	48 8b ac 24 a0 c0 00 	mov    0xc0a0(%rsp),%rbp
  40280e:	00 
  40280f:	64 48 8b 04 25 28 00 	mov    %fs:0x28,%rax
  402816:	00 00 
  402818:	48 89 84 24 58 c0 00 	mov    %rax,0xc058(%rsp)
  40281f:	00 
  402820:	31 c0                	xor    %eax,%eax
  402822:	c7 44 24 2c 00 00 00 	movl   $0x0,0x2c(%rsp)
  402829:	00 
  40282a:	ba 00 00 00 00       	mov    $0x0,%edx
  40282f:	be 01 00 00 00       	mov    $0x1,%esi
  402834:	bf 02 00 00 00       	mov    $0x2,%edi
  402839:	e8 12 ea ff ff       	call   401250 <socket@plt>
  40283e:	85 c0                	test   %eax,%eax
  402840:	0f 88 77 02 00 00    	js     402abd <submitr+0x2de>
  402846:	89 c3                	mov    %eax,%ebx
  402848:	4c 89 e7             	mov    %r12,%rdi
  40284b:	e8 e0 e8 ff ff       	call   401130 <gethostbyname@plt>
  402850:	48 85 c0             	test   %rax,%rax
  402853:	0f 84 b0 02 00 00    	je     402b09 <submitr+0x32a>
  402859:	4c 8d 7c 24 30       	lea    0x30(%rsp),%r15
  40285e:	48 c7 44 24 30 00 00 	movq   $0x0,0x30(%rsp)
  402865:	00 00 
  402867:	48 c7 44 24 38 00 00 	movq   $0x0,0x38(%rsp)
  40286e:	00 00 
  402870:	66 c7 44 24 30 02 00 	movw   $0x2,0x30(%rsp)
  402877:	48 63 50 14          	movslq 0x14(%rax),%rdx
  40287b:	48 8b 40 18          	mov    0x18(%rax),%rax
  40287f:	48 8b 30             	mov    (%rax),%rsi
  402882:	48 8d 7c 24 34       	lea    0x34(%rsp),%rdi
  402887:	b9 0c 00 00 00       	mov    $0xc,%ecx
  40288c:	e8 af e8 ff ff       	call   401140 <__memmove_chk@plt>
  402891:	0f b7 44 24 10       	movzwl 0x10(%rsp),%eax
  402896:	66 c1 c0 08          	rol    $0x8,%ax
  40289a:	66 89 44 24 32       	mov    %ax,0x32(%rsp)
  40289f:	ba 10 00 00 00       	mov    $0x10,%edx
  4028a4:	4c 89 fe             	mov    %r15,%rsi
  4028a7:	89 df                	mov    %ebx,%edi
  4028a9:	e8 62 e9 ff ff       	call   401210 <connect@plt>
  4028ae:	85 c0                	test   %eax,%eax
  4028b0:	0f 88 bb 02 00 00    	js     402b71 <submitr+0x392>
  4028b6:	4c 89 ef             	mov    %r13,%rdi
  4028b9:	e8 e2 e7 ff ff       	call   4010a0 <strlen@plt>
  4028be:	49 89 c7             	mov    %rax,%r15
  4028c1:	4c 89 f7             	mov    %r14,%rdi
  4028c4:	e8 d7 e7 ff ff       	call   4010a0 <strlen@plt>
  4028c9:	48 89 44 24 10       	mov    %rax,0x10(%rsp)
  4028ce:	48 8b 7c 24 08       	mov    0x8(%rsp),%rdi
  4028d3:	e8 c8 e7 ff ff       	call   4010a0 <strlen@plt>
  4028d8:	48 03 44 24 10       	add    0x10(%rsp),%rax
  4028dd:	48 89 44 24 10       	mov    %rax,0x10(%rsp)
  4028e2:	48 8b 7c 24 18       	mov    0x18(%rsp),%rdi
  4028e7:	e8 b4 e7 ff ff       	call   4010a0 <strlen@plt>
  4028ec:	48 03 44 24 10       	add    0x10(%rsp),%rax
  4028f1:	4b 8d 14 7f          	lea    (%r15,%r15,2),%rdx
  4028f5:	48 8d 84 10 80 00 00 	lea    0x80(%rax,%rdx,1),%rax
  4028fc:	00 
  4028fd:	48 3d 00 20 00 00    	cmp    $0x2000,%rax
  402903:	0f 87 c2 02 00 00    	ja     402bcb <submitr+0x3ec>
  402909:	48 8d b4 24 50 20 00 	lea    0x2050(%rsp),%rsi
  402910:	00 
  402911:	b9 00 04 00 00       	mov    $0x400,%ecx
  402916:	b8 00 00 00 00       	mov    $0x0,%eax
  40291b:	48 89 f7             	mov    %rsi,%rdi
  40291e:	f3 48 ab             	rep stos %rax,%es:(%rdi)
  402921:	4c 89 ef             	mov    %r13,%rdi
  402924:	e8 b0 fd ff ff       	call   4026d9 <urlencode>
  402929:	85 c0                	test   %eax,%eax
  40292b:	0f 88 0d 03 00 00    	js     402c3e <submitr+0x45f>
  402931:	4c 8d bc 24 50 80 00 	lea    0x8050(%rsp),%r15
  402938:	00 
  402939:	41 54                	push   %r12
  40293b:	48 8d 84 24 58 20 00 	lea    0x2058(%rsp),%rax
  402942:	00 
  402943:	50                   	push   %rax
  402944:	4d 89 f1             	mov    %r14,%r9
  402947:	4c 8b 44 24 18       	mov    0x18(%rsp),%r8
  40294c:	48 8d 0d f5 1d 00 00 	lea    0x1df5(%rip),%rcx        # 404748 <trans_char+0x38>
  402953:	ba 00 40 00 00       	mov    $0x4000,%edx
  402958:	be 01 00 00 00       	mov    $0x1,%esi
  40295d:	4c 89 ff             	mov    %r15,%rdi
  402960:	b8 00 00 00 00       	mov    $0x0,%eax
  402965:	e8 d6 e8 ff ff       	call   401240 <__sprintf_chk@plt>
  40296a:	4c 89 ff             	mov    %r15,%rdi
  40296d:	e8 2e e7 ff ff       	call   4010a0 <strlen@plt>
  402972:	48 89 c2             	mov    %rax,%rdx
  402975:	4c 89 fe             	mov    %r15,%rsi
  402978:	89 df                	mov    %ebx,%edi
  40297a:	e8 d2 fb ff ff       	call   402551 <rio_writen>
  40297f:	48 83 c4 10          	add    $0x10,%rsp
  402983:	48 85 c0             	test   %rax,%rax
  402986:	0f 88 3d 03 00 00    	js     402cc9 <submitr+0x4ea>
  40298c:	4c 8d 64 24 40       	lea    0x40(%rsp),%r12
  402991:	89 de                	mov    %ebx,%esi
  402993:	4c 89 e7             	mov    %r12,%rdi
  402996:	e8 74 fb ff ff       	call   40250f <rio_readinitb>
  40299b:	48 8d b4 24 50 80 00 	lea    0x8050(%rsp),%rsi
  4029a2:	00 
  4029a3:	ba 00 20 00 00       	mov    $0x2000,%edx
  4029a8:	4c 89 e7             	mov    %r12,%rdi
  4029ab:	e8 88 fc ff ff       	call   402638 <rio_readlineb>
  4029b0:	48 85 c0             	test   %rax,%rax
  4029b3:	0f 8e 7f 03 00 00    	jle    402d38 <submitr+0x559>
  4029b9:	48 8d 4c 24 2c       	lea    0x2c(%rsp),%rcx
  4029be:	48 8d 94 24 50 40 00 	lea    0x4050(%rsp),%rdx
  4029c5:	00 
  4029c6:	48 8d bc 24 50 80 00 	lea    0x8050(%rsp),%rdi
  4029cd:	00 
  4029ce:	4c 8d 84 24 50 60 00 	lea    0x6050(%rsp),%r8
  4029d5:	00 
  4029d6:	48 8d 35 df 1d 00 00 	lea    0x1ddf(%rip),%rsi        # 4047bc <trans_char+0xac>
  4029dd:	b8 00 00 00 00       	mov    $0x0,%eax
  4029e2:	e8 a9 e7 ff ff       	call   401190 <__isoc99_sscanf@plt>
  4029e7:	48 8d bc 24 50 80 00 	lea    0x8050(%rsp),%rdi
  4029ee:	00 
  4029ef:	48 8d 35 dd 1d 00 00 	lea    0x1ddd(%rip),%rsi        # 4047d3 <trans_char+0xc3>
  4029f6:	e8 15 e7 ff ff       	call   401110 <strcmp@plt>
  4029fb:	85 c0                	test   %eax,%eax
  4029fd:	0f 84 b3 03 00 00    	je     402db6 <submitr+0x5d7>
  402a03:	48 8d b4 24 50 80 00 	lea    0x8050(%rsp),%rsi
  402a0a:	00 
  402a0b:	48 8d 7c 24 40       	lea    0x40(%rsp),%rdi
  402a10:	ba 00 20 00 00       	mov    $0x2000,%edx
  402a15:	e8 1e fc ff ff       	call   402638 <rio_readlineb>
  402a1a:	48 85 c0             	test   %rax,%rax
  402a1d:	7f c8                	jg     4029e7 <submitr+0x208>
  402a1f:	48 b8 45 72 72 6f 72 	movabs $0x43203a726f727245,%rax
  402a26:	3a 20 43 
  402a29:	48 ba 6c 69 65 6e 74 	movabs $0x6e7520746e65696c,%rdx
  402a30:	20 75 6e 
  402a33:	48 89 45 00          	mov    %rax,0x0(%rbp)
  402a37:	48 89 55 08          	mov    %rdx,0x8(%rbp)
  402a3b:	48 b8 61 62 6c 65 20 	movabs $0x206f7420656c6261,%rax
  402a42:	74 6f 20 
  402a45:	48 ba 72 65 61 64 20 	movabs $0x6165682064616572,%rdx
  402a4c:	68 65 61 
  402a4f:	48 89 45 10          	mov    %rax,0x10(%rbp)
  402a53:	48 89 55 18          	mov    %rdx,0x18(%rbp)
  402a57:	48 b8 64 65 72 73 20 	movabs $0x6f72662073726564,%rax
  402a5e:	66 72 6f 
  402a61:	48 ba 6d 20 74 68 65 	movabs $0x657220656874206d,%rdx
  402a68:	20 72 65 
  402a6b:	48 89 45 20          	mov    %rax,0x20(%rbp)
  402a6f:	48 89 55 28          	mov    %rdx,0x28(%rbp)
  402a73:	48 b8 73 75 6c 74 20 	movabs $0x72657320746c7573,%rax
  402a7a:	73 65 72 
  402a7d:	48 89 45 30          	mov    %rax,0x30(%rbp)
  402a81:	c7 45 38 76 65 72 00 	movl   $0x726576,0x38(%rbp)
  402a88:	89 df                	mov    %ebx,%edi
  402a8a:	e8 61 e6 ff ff       	call   4010f0 <close@plt>
  402a8f:	b8 ff ff ff ff       	mov    $0xffffffff,%eax
  402a94:	48 8b 94 24 58 c0 00 	mov    0xc058(%rsp),%rdx
  402a9b:	00 
  402a9c:	64 48 2b 14 25 28 00 	sub    %fs:0x28,%rdx
  402aa3:	00 00 
  402aa5:	0f 85 5c 04 00 00    	jne    402f07 <submitr+0x728>
  402aab:	48 81 c4 68 c0 00 00 	add    $0xc068,%rsp
  402ab2:	5b                   	pop    %rbx
  402ab3:	5d                   	pop    %rbp
  402ab4:	41 5c                	pop    %r12
  402ab6:	41 5d                	pop    %r13
  402ab8:	41 5e                	pop    %r14
  402aba:	41 5f                	pop    %r15
  402abc:	c3                   	ret    
  402abd:	48 b8 45 72 72 6f 72 	movabs $0x43203a726f727245,%rax
  402ac4:	3a 20 43 
  402ac7:	48 ba 6c 69 65 6e 74 	movabs $0x6e7520746e65696c,%rdx
  402ace:	20 75 6e 
  402ad1:	48 89 45 00          	mov    %rax,0x0(%rbp)
  402ad5:	48 89 55 08          	mov    %rdx,0x8(%rbp)
  402ad9:	48 b8 61 62 6c 65 20 	movabs $0x206f7420656c6261,%rax
  402ae0:	74 6f 20 
  402ae3:	48 ba 63 72 65 61 74 	movabs $0x7320657461657263,%rdx
  402aea:	65 20 73 
  402aed:	48 89 45 10          	mov    %rax,0x10(%rbp)
  402af1:	48 89 55 18          	mov    %rdx,0x18(%rbp)
  402af5:	c7 45 20 6f 63 6b 65 	movl   $0x656b636f,0x20(%rbp)
  402afc:	66 c7 45 24 74 00    	movw   $0x74,0x24(%rbp)
  402b02:	b8 ff ff ff ff       	mov    $0xffffffff,%eax
  402b07:	eb 8b                	jmp    402a94 <submitr+0x2b5>
  402b09:	48 b8 45 72 72 6f 72 	movabs $0x44203a726f727245,%rax
  402b10:	3a 20 44 
  402b13:	48 ba 4e 53 20 69 73 	movabs $0x6e7520736920534e,%rdx
  402b1a:	20 75 6e 
  402b1d:	48 89 45 00          	mov    %rax,0x0(%rbp)
  402b21:	48 89 55 08          	mov    %rdx,0x8(%rbp)
  402b25:	48 b8 61 62 6c 65 20 	movabs $0x206f7420656c6261,%rax
  402b2c:	74 6f 20 
  402b2f:	48 ba 72 65 73 6f 6c 	movabs $0x2065766c6f736572,%rdx
  402b36:	76 65 20 
  402b39:	48 89 45 10          	mov    %rax,0x10(%rbp)
  402b3d:	48 89 55 18          	mov    %rdx,0x18(%rbp)
  402b41:	48 b8 73 65 72 76 65 	movabs $0x6120726576726573,%rax
  402b48:	72 20 61 
  402b4b:	48 89 45 20          	mov    %rax,0x20(%rbp)
  402b4f:	c7 45 28 64 64 72 65 	movl   $0x65726464,0x28(%rbp)
  402b56:	66 c7 45 2c 73 73    	movw   $0x7373,0x2c(%rbp)
  402b5c:	c6 45 2e 00          	movb   $0x0,0x2e(%rbp)
  402b60:	89 df                	mov    %ebx,%edi
  402b62:	e8 89 e5 ff ff       	call   4010f0 <close@plt>
  402b67:	b8 ff ff ff ff       	mov    $0xffffffff,%eax
  402b6c:	e9 23 ff ff ff       	jmp    402a94 <submitr+0x2b5>
  402b71:	48 b8 45 72 72 6f 72 	movabs $0x55203a726f727245,%rax
  402b78:	3a 20 55 
  402b7b:	48 ba 6e 61 62 6c 65 	movabs $0x6f7420656c62616e,%rdx
  402b82:	20 74 6f 
  402b85:	48 89 45 00          	mov    %rax,0x0(%rbp)
  402b89:	48 89 55 08          	mov    %rdx,0x8(%rbp)
  402b8d:	48 b8 20 63 6f 6e 6e 	movabs $0x7463656e6e6f6320,%rax
  402b94:	65 63 74 
  402b97:	48 ba 20 74 6f 20 74 	movabs $0x20656874206f7420,%rdx
  402b9e:	68 65 20 
  402ba1:	48 89 45 10          	mov    %rax,0x10(%rbp)
  402ba5:	48 89 55 18          	mov    %rdx,0x18(%rbp)
  402ba9:	c7 45 20 73 65 72 76 	movl   $0x76726573,0x20(%rbp)
  402bb0:	66 c7 45 24 65 72    	movw   $0x7265,0x24(%rbp)
  402bb6:	c6 45 26 00          	movb   $0x0,0x26(%rbp)
  402bba:	89 df                	mov    %ebx,%edi
  402bbc:	e8 2f e5 ff ff       	call   4010f0 <close@plt>
  402bc1:	b8 ff ff ff ff       	mov    $0xffffffff,%eax
  402bc6:	e9 c9 fe ff ff       	jmp    402a94 <submitr+0x2b5>
  402bcb:	48 b8 45 72 72 6f 72 	movabs $0x52203a726f727245,%rax
  402bd2:	3a 20 52 
  402bd5:	48 ba 65 73 75 6c 74 	movabs $0x747320746c757365,%rdx
  402bdc:	20 73 74 
  402bdf:	48 89 45 00          	mov    %rax,0x0(%rbp)
  402be3:	48 89 55 08          	mov    %rdx,0x8(%rbp)
  402be7:	48 b8 72 69 6e 67 20 	movabs $0x6f6f7420676e6972,%rax
  402bee:	74 6f 6f 
  402bf1:	48 ba 20 6c 61 72 67 	movabs $0x202e656772616c20,%rdx
  402bf8:	65 2e 20 
  402bfb:	48 89 45 10          	mov    %rax,0x10(%rbp)
  402bff:	48 89 55 18          	mov    %rdx,0x18(%rbp)
  402c03:	48 b8 49 6e 63 72 65 	movabs $0x6573616572636e49,%rax
  402c0a:	61 73 65 
  402c0d:	48 ba 20 53 55 42 4d 	movabs $0x5254494d42555320,%rdx
  402c14:	49 54 52 
  402c17:	48 89 45 20          	mov    %rax,0x20(%rbp)
  402c1b:	48 89 55 28          	mov    %rdx,0x28(%rbp)
  402c1f:	48 b8 5f 4d 41 58 42 	movabs $0x46554258414d5f,%rax
  402c26:	55 46 00 
  402c29:	48 89 45 30          	mov    %rax,0x30(%rbp)
  402c2d:	89 df                	mov    %ebx,%edi
  402c2f:	e8 bc e4 ff ff       	call   4010f0 <close@plt>
  402c34:	b8 ff ff ff ff       	mov    $0xffffffff,%eax
  402c39:	e9 56 fe ff ff       	jmp    402a94 <submitr+0x2b5>
  402c3e:	48 b8 45 72 72 6f 72 	movabs $0x52203a726f727245,%rax
  402c45:	3a 20 52 
  402c48:	48 ba 65 73 75 6c 74 	movabs $0x747320746c757365,%rdx
  402c4f:	20 73 74 
  402c52:	48 89 45 00          	mov    %rax,0x0(%rbp)
  402c56:	48 89 55 08          	mov    %rdx,0x8(%rbp)
  402c5a:	48 b8 72 69 6e 67 20 	movabs $0x6e6f6320676e6972,%rax
  402c61:	63 6f 6e 
  402c64:	48 ba 74 61 69 6e 73 	movabs $0x6e6120736e696174,%rdx
  402c6b:	20 61 6e 
  402c6e:	48 89 45 10          	mov    %rax,0x10(%rbp)
  402c72:	48 89 55 18          	mov    %rdx,0x18(%rbp)
  402c76:	48 b8 20 69 6c 6c 65 	movabs $0x6c6167656c6c6920,%rax
  402c7d:	67 61 6c 
  402c80:	48 ba 20 6f 72 20 75 	movabs $0x72706e7520726f20,%rdx
  402c87:	6e 70 72 
  402c8a:	48 89 45 20          	mov    %rax,0x20(%rbp)
  402c8e:	48 89 55 28          	mov    %rdx,0x28(%rbp)
  402c92:	48 b8 69 6e 74 61 62 	movabs $0x20656c6261746e69,%rax
  402c99:	6c 65 20 
  402c9c:	48 ba 63 68 61 72 61 	movabs $0x6574636172616863,%rdx
  402ca3:	63 74 65 
  402ca6:	48 89 45 30          	mov    %rax,0x30(%rbp)
  402caa:	48 89 55 38          	mov    %rdx,0x38(%rbp)
  402cae:	66 c7 45 40 72 2e    	movw   $0x2e72,0x40(%rbp)
  402cb4:	c6 45 42 00          	movb   $0x0,0x42(%rbp)
  402cb8:	89 df                	mov    %ebx,%edi
  402cba:	e8 31 e4 ff ff       	call   4010f0 <close@plt>
  402cbf:	b8 ff ff ff ff       	mov    $0xffffffff,%eax
  402cc4:	e9 cb fd ff ff       	jmp    402a94 <submitr+0x2b5>
  402cc9:	48 b8 45 72 72 6f 72 	movabs $0x43203a726f727245,%rax
  402cd0:	3a 20 43 
  402cd3:	48 ba 6c 69 65 6e 74 	movabs $0x6e7520746e65696c,%rdx
  402cda:	20 75 6e 
  402cdd:	48 89 45 00          	mov    %rax,0x0(%rbp)
  402ce1:	48 89 55 08          	mov    %rdx,0x8(%rbp)
  402ce5:	48 b8 61 62 6c 65 20 	movabs $0x206f7420656c6261,%rax
  402cec:	74 6f 20 
  402cef:	48 ba 77 72 69 74 65 	movabs $0x6f74206574697277,%rdx
  402cf6:	20 74 6f 
  402cf9:	48 89 45 10          	mov    %rax,0x10(%rbp)
  402cfd:	48 89 55 18          	mov    %rdx,0x18(%rbp)
  402d01:	48 b8 20 74 68 65 20 	movabs $0x7365722065687420,%rax
  402d08:	72 65 73 
  402d0b:	48 ba 75 6c 74 20 73 	movabs $0x7672657320746c75,%rdx
  402d12:	65 72 76 
  402d15:	48 89 45 20          	mov    %rax,0x20(%rbp)
  402d19:	48 89 55 28          	mov    %rdx,0x28(%rbp)
  402d1d:	66 c7 45 30 65 72    	movw   $0x7265,0x30(%rbp)
  402d23:	c6 45 32 00          	movb   $0x0,0x32(%rbp)
  402d27:	89 df                	mov    %ebx,%edi
  402d29:	e8 c2 e3 ff ff       	call   4010f0 <close@plt>
  402d2e:	b8 ff ff ff ff       	mov    $0xffffffff,%eax
  402d33:	e9 5c fd ff ff       	jmp    402a94 <submitr+0x2b5>
  402d38:	48 b8 45 72 72 6f 72 	movabs $0x43203a726f727245,%rax
  402d3f:	3a 20 43 
  402d42:	48 ba 6c 69 65 6e 74 	movabs $0x6e7520746e65696c,%rdx
  402d49:	20 75 6e 
  402d4c:	48 89 45 00          	mov    %rax,0x0(%rbp)
  402d50:	48 89 55 08          	mov    %rdx,0x8(%rbp)
  402d54:	48 b8 61 62 6c 65 20 	movabs $0x206f7420656c6261,%rax
  402d5b:	74 6f 20 
  402d5e:	48 ba 72 65 61 64 20 	movabs $0x7269662064616572,%rdx
  402d65:	66 69 72 
  402d68:	48 89 45 10          	mov    %rax,0x10(%rbp)
  402d6c:	48 89 55 18          	mov    %rdx,0x18(%rbp)
  402d70:	48 b8 73 74 20 68 65 	movabs $0x6564616568207473,%rax
  402d77:	61 64 65 
  402d7a:	48 ba 72 20 66 72 6f 	movabs $0x72206d6f72662072,%rdx
  402d81:	6d 20 72 
  402d84:	48 89 45 20          	mov    %rax,0x20(%rbp)
  402d88:	48 89 55 28          	mov    %rdx,0x28(%rbp)
  402d8c:	48 b8 65 73 75 6c 74 	movabs $0x657320746c757365,%rax
  402d93:	20 73 65 
  402d96:	48 89 45 30          	mov    %rax,0x30(%rbp)
  402d9a:	c7 45 38 72 76 65 72 	movl   $0x72657672,0x38(%rbp)
  402da1:	c6 45 3c 00          	movb   $0x0,0x3c(%rbp)
  402da5:	89 df                	mov    %ebx,%edi
  402da7:	e8 44 e3 ff ff       	call   4010f0 <close@plt>
  402dac:	b8 ff ff ff ff       	mov    $0xffffffff,%eax
  402db1:	e9 de fc ff ff       	jmp    402a94 <submitr+0x2b5>
  402db6:	48 8d b4 24 50 80 00 	lea    0x8050(%rsp),%rsi
  402dbd:	00 
  402dbe:	48 8d 7c 24 40       	lea    0x40(%rsp),%rdi
  402dc3:	ba 00 20 00 00       	mov    $0x2000,%edx
  402dc8:	e8 6b f8 ff ff       	call   402638 <rio_readlineb>
  402dcd:	48 85 c0             	test   %rax,%rax
  402dd0:	7e 78                	jle    402e4a <submitr+0x66b>
  402dd2:	44 8b 44 24 2c       	mov    0x2c(%rsp),%r8d
  402dd7:	41 81 f8 c8 00 00 00 	cmp    $0xc8,%r8d
  402dde:	0f 85 ea 00 00 00    	jne    402ece <submitr+0x6ef>
  402de4:	48 8d b4 24 50 80 00 	lea    0x8050(%rsp),%rsi
  402deb:	00 
  402dec:	48 89 ef             	mov    %rbp,%rdi
  402def:	e8 7c e2 ff ff       	call   401070 <strcpy@plt>
  402df4:	89 df                	mov    %ebx,%edi
  402df6:	e8 f5 e2 ff ff       	call   4010f0 <close@plt>
  402dfb:	48 8d 35 cb 19 00 00 	lea    0x19cb(%rip),%rsi        # 4047cd <trans_char+0xbd>
  402e02:	48 89 ef             	mov    %rbp,%rdi
  402e05:	e8 06 e3 ff ff       	call   401110 <strcmp@plt>
  402e0a:	85 c0                	test   %eax,%eax
  402e0c:	0f 84 82 fc ff ff    	je     402a94 <submitr+0x2b5>
  402e12:	48 8d 35 b8 19 00 00 	lea    0x19b8(%rip),%rsi        # 4047d1 <trans_char+0xc1>
  402e19:	48 89 ef             	mov    %rbp,%rdi
  402e1c:	e8 ef e2 ff ff       	call   401110 <strcmp@plt>
  402e21:	85 c0                	test   %eax,%eax
  402e23:	0f 84 6b fc ff ff    	je     402a94 <submitr+0x2b5>
  402e29:	48 8d 35 a6 19 00 00 	lea    0x19a6(%rip),%rsi        # 4047d6 <trans_char+0xc6>
  402e30:	48 89 ef             	mov    %rbp,%rdi
  402e33:	e8 d8 e2 ff ff       	call   401110 <strcmp@plt>
  402e38:	85 c0                	test   %eax,%eax
  402e3a:	0f 84 54 fc ff ff    	je     402a94 <submitr+0x2b5>
  402e40:	b8 ff ff ff ff       	mov    $0xffffffff,%eax
  402e45:	e9 4a fc ff ff       	jmp    402a94 <submitr+0x2b5>
  402e4a:	48 b8 45 72 72 6f 72 	movabs $0x43203a726f727245,%rax
  402e51:	3a 20 43 
  402e54:	48 ba 6c 69 65 6e 74 	movabs $0x6e7520746e65696c,%rdx
  402e5b:	20 75 6e 
  402e5e:	48 89 45 00          	mov    %rax,0x0(%rbp)
  402e62:	48 89 55 08          	mov    %rdx,0x8(%rbp)
  402e66:	48 b8 61 62 6c 65 20 	movabs $0x206f7420656c6261,%rax
  402e6d:	74 6f 20 
  402e70:	48 ba 72 65 61 64 20 	movabs $0x6174732064616572,%rdx
  402e77:	73 74 61 
  402e7a:	48 89 45 10          	mov    %rax,0x10(%rbp)
  402e7e:	48 89 55 18          	mov    %rdx,0x18(%rbp)
  402e82:	48 b8 74 75 73 20 6d 	movabs $0x7373656d20737574,%rax
  402e89:	65 73 73 
  402e8c:	48 ba 61 67 65 20 66 	movabs $0x6d6f726620656761,%rdx
  402e93:	72 6f 6d 
  402e96:	48 89 45 20          	mov    %rax,0x20(%rbp)
  402e9a:	48 89 55 28          	mov    %rdx,0x28(%rbp)
  402e9e:	48 b8 20 72 65 73 75 	movabs $0x20746c7573657220,%rax
  402ea5:	6c 74 20 
  402ea8:	48 89 45 30          	mov    %rax,0x30(%rbp)
  402eac:	c7 45 38 73 65 72 76 	movl   $0x76726573,0x38(%rbp)
  402eb3:	66 c7 45 3c 65 72    	movw   $0x7265,0x3c(%rbp)
  402eb9:	c6 45 3e 00          	movb   $0x0,0x3e(%rbp)
  402ebd:	89 df                	mov    %ebx,%edi
  402ebf:	e8 2c e2 ff ff       	call   4010f0 <close@plt>
  402ec4:	b8 ff ff ff ff       	mov    $0xffffffff,%eax
  402ec9:	e9 c6 fb ff ff       	jmp    402a94 <submitr+0x2b5>
  402ece:	4c 8d 8c 24 50 60 00 	lea    0x6050(%rsp),%r9
  402ed5:	00 
  402ed6:	48 8d 0d ab 18 00 00 	lea    0x18ab(%rip),%rcx        # 404788 <trans_char+0x78>
  402edd:	48 c7 c2 ff ff ff ff 	mov    $0xffffffffffffffff,%rdx
  402ee4:	be 01 00 00 00       	mov    $0x1,%esi
  402ee9:	48 89 ef             	mov    %rbp,%rdi
  402eec:	b8 00 00 00 00       	mov    $0x0,%eax
  402ef1:	e8 4a e3 ff ff       	call   401240 <__sprintf_chk@plt>
  402ef6:	89 df                	mov    %ebx,%edi
  402ef8:	e8 f3 e1 ff ff       	call   4010f0 <close@plt>
  402efd:	b8 ff ff ff ff       	mov    $0xffffffff,%eax
  402f02:	e9 8d fb ff ff       	jmp    402a94 <submitr+0x2b5>
  402f07:	e8 a4 e1 ff ff       	call   4010b0 <__stack_chk_fail@plt>

0000000000402f0c <init_timeout>:
  402f0c:	85 ff                	test   %edi,%edi
  402f0e:	74 26                	je     402f36 <init_timeout+0x2a>
  402f10:	53                   	push   %rbx
  402f11:	89 fb                	mov    %edi,%ebx
  402f13:	78 1a                	js     402f2f <init_timeout+0x23>
  402f15:	48 8d 35 05 f6 ff ff 	lea    -0x9fb(%rip),%rsi        # 402521 <sigalrm_handler>
  402f1c:	bf 0e 00 00 00       	mov    $0xe,%edi
  402f21:	e8 fa e1 ff ff       	call   401120 <signal@plt>
  402f26:	89 df                	mov    %ebx,%edi
  402f28:	e8 b3 e1 ff ff       	call   4010e0 <alarm@plt>
  402f2d:	5b                   	pop    %rbx
  402f2e:	c3                   	ret    
  402f2f:	bb 00 00 00 00       	mov    $0x0,%ebx
  402f34:	eb df                	jmp    402f15 <init_timeout+0x9>
  402f36:	c3                   	ret    

0000000000402f37 <init_driver>:
  402f37:	41 54                	push   %r12
  402f39:	55                   	push   %rbp
  402f3a:	53                   	push   %rbx
  402f3b:	48 83 ec 20          	sub    $0x20,%rsp
  402f3f:	48 89 fd             	mov    %rdi,%rbp
  402f42:	64 48 8b 04 25 28 00 	mov    %fs:0x28,%rax
  402f49:	00 00 
  402f4b:	48 89 44 24 18       	mov    %rax,0x18(%rsp)
  402f50:	31 c0                	xor    %eax,%eax
  402f52:	be 01 00 00 00       	mov    $0x1,%esi
  402f57:	bf 0d 00 00 00       	mov    $0xd,%edi
  402f5c:	e8 bf e1 ff ff       	call   401120 <signal@plt>
  402f61:	be 01 00 00 00       	mov    $0x1,%esi
  402f66:	bf 1d 00 00 00       	mov    $0x1d,%edi
  402f6b:	e8 b0 e1 ff ff       	call   401120 <signal@plt>
  402f70:	be 01 00 00 00       	mov    $0x1,%esi
  402f75:	bf 1d 00 00 00       	mov    $0x1d,%edi
  402f7a:	e8 a1 e1 ff ff       	call   401120 <signal@plt>
  402f7f:	ba 00 00 00 00       	mov    $0x0,%edx
  402f84:	be 01 00 00 00       	mov    $0x1,%esi
  402f89:	bf 02 00 00 00       	mov    $0x2,%edi
  402f8e:	e8 bd e2 ff ff       	call   401250 <socket@plt>
  402f93:	85 c0                	test   %eax,%eax
  402f95:	0f 88 9c 00 00 00    	js     403037 <init_driver+0x100>
  402f9b:	89 c3                	mov    %eax,%ebx
  402f9d:	48 8d 3d 33 13 00 00 	lea    0x1333(%rip),%rdi        # 4042d7 <_IO_stdin_used+0x2d7>
  402fa4:	e8 87 e1 ff ff       	call   401130 <gethostbyname@plt>
  402fa9:	48 85 c0             	test   %rax,%rax
  402fac:	0f 84 d1 00 00 00    	je     403083 <init_driver+0x14c>
  402fb2:	49 89 e4             	mov    %rsp,%r12
  402fb5:	48 c7 04 24 00 00 00 	movq   $0x0,(%rsp)
  402fbc:	00 
  402fbd:	48 c7 44 24 08 00 00 	movq   $0x0,0x8(%rsp)
  402fc4:	00 00 
  402fc6:	66 c7 04 24 02 00    	movw   $0x2,(%rsp)
  402fcc:	48 63 50 14          	movslq 0x14(%rax),%rdx
  402fd0:	48 8b 40 18          	mov    0x18(%rax),%rax
  402fd4:	48 8b 30             	mov    (%rax),%rsi
  402fd7:	48 8d 7c 24 04       	lea    0x4(%rsp),%rdi
  402fdc:	b9 0c 00 00 00       	mov    $0xc,%ecx
  402fe1:	e8 5a e1 ff ff       	call   401140 <__memmove_chk@plt>
  402fe6:	66 c7 44 24 02 3c 9a 	movw   $0x9a3c,0x2(%rsp)
  402fed:	ba 10 00 00 00       	mov    $0x10,%edx
  402ff2:	4c 89 e6             	mov    %r12,%rsi
  402ff5:	89 df                	mov    %ebx,%edi
  402ff7:	e8 14 e2 ff ff       	call   401210 <connect@plt>
  402ffc:	85 c0                	test   %eax,%eax
  402ffe:	0f 88 e7 00 00 00    	js     4030eb <init_driver+0x1b4>
  403004:	89 df                	mov    %ebx,%edi
  403006:	e8 e5 e0 ff ff       	call   4010f0 <close@plt>
  40300b:	66 c7 45 00 4f 4b    	movw   $0x4b4f,0x0(%rbp)
  403011:	c6 45 02 00          	movb   $0x0,0x2(%rbp)
  403015:	b8 00 00 00 00       	mov    $0x0,%eax
  40301a:	48 8b 54 24 18       	mov    0x18(%rsp),%rdx
  40301f:	64 48 2b 14 25 28 00 	sub    %fs:0x28,%rdx
  403026:	00 00 
  403028:	0f 85 32 01 00 00    	jne    403160 <init_driver+0x229>
  40302e:	48 83 c4 20          	add    $0x20,%rsp
  403032:	5b                   	pop    %rbx
  403033:	5d                   	pop    %rbp
  403034:	41 5c                	pop    %r12
  403036:	c3                   	ret    
  403037:	48 b8 45 72 72 6f 72 	movabs $0x43203a726f727245,%rax
  40303e:	3a 20 43 
  403041:	48 ba 6c 69 65 6e 74 	movabs $0x6e7520746e65696c,%rdx
  403048:	20 75 6e 
  40304b:	48 89 45 00          	mov    %rax,0x0(%rbp)
  40304f:	48 89 55 08          	mov    %rdx,0x8(%rbp)
  403053:	48 b8 61 62 6c 65 20 	movabs $0x206f7420656c6261,%rax
  40305a:	74 6f 20 
  40305d:	48 ba 63 72 65 61 74 	movabs $0x7320657461657263,%rdx
  403064:	65 20 73 
  403067:	48 89 45 10          	mov    %rax,0x10(%rbp)
  40306b:	48 89 55 18          	mov    %rdx,0x18(%rbp)
  40306f:	c7 45 20 6f 63 6b 65 	movl   $0x656b636f,0x20(%rbp)
  403076:	66 c7 45 24 74 00    	movw   $0x74,0x24(%rbp)
  40307c:	b8 ff ff ff ff       	mov    $0xffffffff,%eax
  403081:	eb 97                	jmp    40301a <init_driver+0xe3>
  403083:	48 b8 45 72 72 6f 72 	movabs $0x44203a726f727245,%rax
  40308a:	3a 20 44 
  40308d:	48 ba 4e 53 20 69 73 	movabs $0x6e7520736920534e,%rdx
  403094:	20 75 6e 
  403097:	48 89 45 00          	mov    %rax,0x0(%rbp)
  40309b:	48 89 55 08          	mov    %rdx,0x8(%rbp)
  40309f:	48 b8 61 62 6c 65 20 	movabs $0x206f7420656c6261,%rax
  4030a6:	74 6f 20 
  4030a9:	48 ba 72 65 73 6f 6c 	movabs $0x2065766c6f736572,%rdx
  4030b0:	76 65 20 
  4030b3:	48 89 45 10          	mov    %rax,0x10(%rbp)
  4030b7:	48 89 55 18          	mov    %rdx,0x18(%rbp)
  4030bb:	48 b8 73 65 72 76 65 	movabs $0x6120726576726573,%rax
  4030c2:	72 20 61 
  4030c5:	48 89 45 20          	mov    %rax,0x20(%rbp)
  4030c9:	c7 45 28 64 64 72 65 	movl   $0x65726464,0x28(%rbp)
  4030d0:	66 c7 45 2c 73 73    	movw   $0x7373,0x2c(%rbp)
  4030d6:	c6 45 2e 00          	movb   $0x0,0x2e(%rbp)
  4030da:	89 df                	mov    %ebx,%edi
  4030dc:	e8 0f e0 ff ff       	call   4010f0 <close@plt>
  4030e1:	b8 ff ff ff ff       	mov    $0xffffffff,%eax
  4030e6:	e9 2f ff ff ff       	jmp    40301a <init_driver+0xe3>
  4030eb:	48 b8 77 69 6c 6b 65 	movabs $0x632e73656b6c6977,%rax
  4030f2:	73 2e 63 
  4030f5:	48 ba 73 2e 68 6d 63 	movabs $0x64652e636d682e73,%rdx
  4030fc:	2e 65 64 
  4030ff:	48 89 45 00          	mov    %rax,0x0(%rbp)
  403103:	48 89 55 08          	mov    %rdx,0x8(%rbp)
  403107:	66 c7 45 10 75 00    	movw   $0x75,0x10(%rbp)
  40310d:	48 b8 45 72 72 6f 72 	movabs $0x55203a726f727245,%rax
  403114:	3a 20 55 
  403117:	48 ba 6e 61 62 6c 65 	movabs $0x6f7420656c62616e,%rdx
  40311e:	20 74 6f 
  403121:	48 89 45 00          	mov    %rax,0x0(%rbp)
  403125:	48 89 55 08          	mov    %rdx,0x8(%rbp)
  403129:	48 b8 20 63 6f 6e 6e 	movabs $0x7463656e6e6f6320,%rax
  403130:	65 63 74 
  403133:	48 ba 20 74 6f 20 73 	movabs $0x76726573206f7420,%rdx
  40313a:	65 72 76 
  40313d:	48 89 45 10          	mov    %rax,0x10(%rbp)
  403141:	48 89 55 18          	mov    %rdx,0x18(%rbp)
  403145:	66 c7 45 20 65 72    	movw   $0x7265,0x20(%rbp)
  40314b:	c6 45 22 00          	movb   $0x0,0x22(%rbp)
  40314f:	89 df                	mov    %ebx,%edi
  403151:	e8 9a df ff ff       	call   4010f0 <close@plt>
  403156:	b8 ff ff ff ff       	mov    $0xffffffff,%eax
  40315b:	e9 ba fe ff ff       	jmp    40301a <init_driver+0xe3>
  403160:	e8 4b df ff ff       	call   4010b0 <__stack_chk_fail@plt>

0000000000403165 <driver_post>:
  403165:	53                   	push   %rbx
  403166:	4c 89 cb             	mov    %r9,%rbx
  403169:	45 85 c0             	test   %r8d,%r8d
  40316c:	75 18                	jne    403186 <driver_post+0x21>
  40316e:	48 85 ff             	test   %rdi,%rdi
  403171:	74 05                	je     403178 <driver_post+0x13>
  403173:	80 3f 00             	cmpb   $0x0,(%rdi)
  403176:	75 37                	jne    4031af <driver_post+0x4a>
  403178:	66 c7 03 4f 4b       	movw   $0x4b4f,(%rbx)
  40317d:	c6 43 02 00          	movb   $0x0,0x2(%rbx)
  403181:	44 89 c0             	mov    %r8d,%eax
  403184:	5b                   	pop    %rbx
  403185:	c3                   	ret    
  403186:	48 89 ca             	mov    %rcx,%rdx
  403189:	48 8d 35 49 16 00 00 	lea    0x1649(%rip),%rsi        # 4047d9 <trans_char+0xc9>
  403190:	bf 01 00 00 00       	mov    $0x1,%edi
  403195:	b8 00 00 00 00       	mov    $0x0,%eax
  40319a:	e8 11 e0 ff ff       	call   4011b0 <__printf_chk@plt>
  40319f:	66 c7 03 4f 4b       	movw   $0x4b4f,(%rbx)
  4031a4:	c6 43 02 00          	movb   $0x0,0x2(%rbx)
  4031a8:	b8 00 00 00 00       	mov    $0x0,%eax
  4031ad:	eb d5                	jmp    403184 <driver_post+0x1f>
  4031af:	48 83 ec 08          	sub    $0x8,%rsp
  4031b3:	41 51                	push   %r9
  4031b5:	49 89 c9             	mov    %rcx,%r9
  4031b8:	49 89 d0             	mov    %rdx,%r8
  4031bb:	48 89 f9             	mov    %rdi,%rcx
  4031be:	48 89 f2             	mov    %rsi,%rdx
  4031c1:	be 9a 3c 00 00       	mov    $0x3c9a,%esi
  4031c6:	48 8d 3d 0a 11 00 00 	lea    0x110a(%rip),%rdi        # 4042d7 <_IO_stdin_used+0x2d7>
  4031cd:	e8 0d f6 ff ff       	call   4027df <submitr>
  4031d2:	48 83 c4 10          	add    $0x10,%rsp
  4031d6:	eb ac                	jmp    403184 <driver_post+0x1f>

00000000004031d8 <check>:
  4031d8:	89 f8                	mov    %edi,%eax
  4031da:	c1 e8 1c             	shr    $0x1c,%eax
  4031dd:	74 1d                	je     4031fc <check+0x24>
  4031df:	b9 00 00 00 00       	mov    $0x0,%ecx
  4031e4:	83 f9 1f             	cmp    $0x1f,%ecx
  4031e7:	7f 0d                	jg     4031f6 <check+0x1e>
  4031e9:	89 f8                	mov    %edi,%eax
  4031eb:	d3 e8                	shr    %cl,%eax
  4031ed:	3c 0a                	cmp    $0xa,%al
  4031ef:	74 11                	je     403202 <check+0x2a>
  4031f1:	83 c1 08             	add    $0x8,%ecx
  4031f4:	eb ee                	jmp    4031e4 <check+0xc>
  4031f6:	b8 01 00 00 00       	mov    $0x1,%eax
  4031fb:	c3                   	ret    
  4031fc:	b8 00 00 00 00       	mov    $0x0,%eax
  403201:	c3                   	ret    
  403202:	b8 00 00 00 00       	mov    $0x0,%eax
  403207:	c3                   	ret    

0000000000403208 <gencookie>:
  403208:	53                   	push   %rbx
  403209:	83 c7 01             	add    $0x1,%edi
  40320c:	e8 3f de ff ff       	call   401050 <srandom@plt>
  403211:	e8 6a df ff ff       	call   401180 <random@plt>
  403216:	89 c3                	mov    %eax,%ebx
  403218:	89 c7                	mov    %eax,%edi
  40321a:	e8 b9 ff ff ff       	call   4031d8 <check>
  40321f:	85 c0                	test   %eax,%eax
  403221:	74 ee                	je     403211 <gencookie+0x9>
  403223:	89 d8                	mov    %ebx,%eax
  403225:	5b                   	pop    %rbx
  403226:	c3                   	ret    

Disassembly of section .fini:

0000000000403228 <_fini>:
  403228:	48 83 ec 08          	sub    $0x8,%rsp
  40322c:	48 83 c4 08          	add    $0x8,%rsp
  403230:	c3                   	ret    
